Product: MDK-ARM Professional 5.10
Component: ARM Compiler 5.04 update 1 (build 49)
Tool: armlink [5040049]

==============================================================================

Section Cross References

    application.o(.text) refers to led.o(.text) for LED_set1
    application.o(.text) refers to thread.o(.text) for rt_thread_delay
    application.o(.text) refers to kservice.o(.text) for rt_kprintf
    application.o(.text) refers to ahrs.o(.text) for MoveAve_WMA
    application.o(.text) refers to dflt_clz.o(x$fpl$dflt) for __aeabi_i2d
    application.o(.text) refers to drleqf.o(x$fpl$drleqf) for __aeabi_cdrcmple
    application.o(.text) refers to basic.o(x$fpl$basic) for __aeabi_dneg
    application.o(.text) refers to ddiv.o(x$fpl$ddiv) for __aeabi_ddiv
    application.o(.text) refers to dmul.o(x$fpl$dmul) for __aeabi_dmul
    application.o(.text) refers to pid.o(.text) for PID_SetTarget
    application.o(.text) refers to dleqf.o(x$fpl$dleqf) for __aeabi_cdcmple
    application.o(.text) refers to application.o(.data) for led_period
    application.o(.text) refers to application.o(.bss) for p_rate_pid
    application.o(.text) refers to settings.o(.bss) for settings
    application.o(.text) refers to pwm.o(.data) for PWM3_Time
    application.o(.text) refers to motor.o(.text) for Motor_Set
    application.o(.text) refers to mem.o(.text) for rt_calloc
    application.o(.text) refers to ipc.o(.text) for rt_event_recv
    application.o(.text) refers to daddsub_clz.o(x$fpl$drsb) for __aeabi_drsub
    application.o(.text) refers to dfix.o(x$fpl$dfix) for __aeabi_d2iz
    application.o(.text) refers to ahrs.o(.data) for mpu_gryo_pitch
    application.o(.text) refers to ahrs.o(.bss) for ahrs
    application.o(.text) refers to dflt_clz.o(x$fpl$dfltu) for __aeabi_ui2d
    application.o(.text) refers to daddsub_clz.o(x$fpl$dsub) for __aeabi_dsub
    application.o(.text) refers to daddsub_clz.o(x$fpl$dadd) for __aeabi_dadd
    application.o(.text) refers to dfixu.o(x$fpl$dfixu) for __aeabi_d2uiz
    application.o(.text) refers to settings.o(.text) for save_settings
    application.o(.text) refers to inv_mpu.o(.text) for mpu_run_self_test
    application.o(.text) refers to inv_mpu_dmp_motion_driver.o(.text) for dmp_set_gyro_bias
    application.o(.text) refers to hardtimer.o(.text) for Timer4_init
    application.o(.text) refers to clock.o(.text) for rt_tick_get
    application.o(.text) refers to d2f.o(x$fpl$d2f) for __aeabi_d2f
    application.o(.text) refers to f2d.o(x$fpl$f2d) for __aeabi_f2d
    application.o(.text) refers to asin.o(i.__hardfp_asin) for __hardfp_asin
    application.o(.text) refers to atan2.o(i.__hardfp_atan2) for __hardfp_atan2
    application.o(.text) refers to stm32f4xx_rcc.o(.text) for RCC_AHB1PeriphClockCmd
    application.o(.text) refers to stm32f4xx_gpio.o(.text) for GPIO_Init
    application.o(.text) refers to components.o(.text) for rt_components_init
    application.o(.text) refers to stm32_iic.o(.text) for i2cInit
    application.o(.text) refers to spi2.o(.text) for rt_hw_spi2_init
    application.o(.text) refers to dfs_fs.o(.text) for dfs_mount
    application.o(VSymTab) refers to application.o(.constdata) for __vsym_pwmcon_name
    application.o(VSymTab) refers to application.o(.data) for pwmcon
    startup.o(.text) refers to kservice.o(.text) for rt_kprintf
    startup.o(.text) refers to board.o(.text) for rt_hw_board_init
    startup.o(.text) refers to clock.o(.text) for rt_system_tick_init
    startup.o(.text) refers to object.o(.text) for rt_system_object_init
    startup.o(.text) refers to timer.o(.text) for rt_system_timer_init
    startup.o(.text) refers to mem.o(.text) for rt_system_heap_init
    startup.o(.text) refers to scheduler.o(.text) for rt_system_scheduler_init
    startup.o(.text) refers to application.o(.text) for rt_application_init
    startup.o(.text) refers to shell.o(.text) for finsh_system_init
    startup.o(.text) refers to idle.o(.text) for rt_thread_idle_init
    startup.o(.text) refers to context_rvds.o(.text) for rt_hw_interrupt_disable
    motor.o(.text) refers to dflt_clz.o(x$fpl$dfltu) for __aeabi_ui2d
    motor.o(.text) refers to pid.o(.text) for RangeValue
    motor.o(.text) refers to dfixu.o(x$fpl$dfixu) for __aeabi_d2uiz
    motor.o(.text) refers to stm32f4xx_tim.o(.text) for TIM_SetCompare4
    motor.o(.text) refers to pwm.o(.text) for PWMOUT1_Init
    motor.o(.text) refers to dflt_clz.o(x$fpl$dflt) for __aeabi_i2d
    motor.o(.text) refers to motor.o(.data) for Motor6
    pid.o(.text) refers to drleqf.o(x$fpl$drleqf) for __aeabi_cdrcmple
    pid.o(.text) refers to dleqf.o(x$fpl$dleqf) for __aeabi_cdcmple
    pid.o(.text) refers to daddsub_clz.o(x$fpl$dsub) for __aeabi_dsub
    pid.o(.text) refers to daddsub_clz.o(x$fpl$dadd) for __aeabi_dadd
    pid.o(.text) refers to dmul.o(x$fpl$dmul) for __aeabi_dmul
    pid.o(.text) refers to ddiv.o(x$fpl$ddiv) for __aeabi_ddiv
    pwm.o(.text) refers to stm32f4xx_rcc.o(.text) for RCC_APB2PeriphClockCmd
    pwm.o(.text) refers to stm32f4xx_gpio.o(.text) for GPIO_Init
    pwm.o(.text) refers to stm32f4xx_tim.o(.text) for TIM_TimeBaseInit
    pwm.o(.text) refers to misc.o(.text) for NVIC_Init
    pwm.o(.text) refers to pwm.o(.data) for coderinited
    pwm.o(.text) refers to irq.o(.text) for rt_interrupt_enter
    pwm.o(.text) refers to pwm.o(.bss) for pre
    ahrs.o(.text) refers to ddiv.o(x$fpl$ddiv) for __aeabi_ddiv
    ahrs.o(.text) refers to dfix.o(x$fpl$dfix) for __aeabi_d2iz
    ahrs.o(.text) refers to kservice.o(.text) for rt_kprintf
    ahrs.o(.text) refers to f2d.o(x$fpl$f2d) for __aeabi_f2d
    ahrs.o(.text) refers to sin.o(i.__hardfp_sin) for __hardfp_sin
    ahrs.o(.text) refers to d2f.o(x$fpl$d2f) for __aeabi_d2f
    ahrs.o(.text) refers to cos.o(i.__hardfp_cos) for __hardfp_cos
    ahrs.o(.text) refers to asinf.o(i.__hardfp_asinf) for __hardfp_asinf
    ahrs.o(.text) refers to dmul.o(x$fpl$dmul) for __aeabi_dmul
    ahrs.o(.text) refers to atan2f.o(i.__hardfp_atan2f) for __hardfp_atan2f
    ahrs.o(.text) refers to ipc.o(.text) for rt_sem_release
    ahrs.o(.text) refers to ahrs.o(.data) for dt
    ahrs.o(.text) refers to ahrs.o(.bss) for ahrs
    ahrs.o(.text) refers to sqrt.o(i.__hardfp_sqrt) for __hardfp_sqrt
    ahrs.o(.text) refers to daddsub_clz.o(x$fpl$dadd) for __aeabi_dadd
    ahrs.o(.text) refers to hardtimer.o(.text) for Timer4_GetSec
    ahrs.o(.text) refers to dflt_clz.o(x$fpl$dflt) for __aeabi_i2d
    ahrs.o(.text) refers to atan2.o(i.__hardfp_atan2) for __hardfp_atan2
    ahrs.o(.text) refers to basic.o(x$fpl$basic) for __aeabi_dneg
    ahrs.o(.text) refers to daddsub_clz.o(x$fpl$dsub) for __aeabi_dsub
    ahrs.o(FSymTab) refers to ahrs.o(.constdata) for __fsym_get_fps_name
    ahrs.o(FSymTab) refers to ahrs.o(.text) for get_fps
    board.o(.text) refers to misc.o(.text) for NVIC_SetVectorTable
    board.o(.text) refers to stm32f4xx_rcc.o(.text) for RCC_GetClocksFreq
    board.o(.text) refers to irq.o(.text) for rt_interrupt_enter
    board.o(.text) refers to clock.o(.text) for rt_tick_increase
    board.o(.text) refers to usart.o(.text) for rt_hw_usart_init
    board.o(.text) refers to kservice.o(.text) for rt_console_set_device
    hardtimer.o(.text) refers to stm32f4xx_rcc.o(.text) for RCC_APB1PeriphClockCmd
    hardtimer.o(.text) refers to stm32f4xx_tim.o(.text) for TIM_TimeBaseInit
    hardtimer.o(.text) refers to dflt_clz.o(x$fpl$dfltu) for __aeabi_ui2d
    hardtimer.o(.text) refers to ddiv.o(x$fpl$ddiv) for __aeabi_ddiv
    led.o(.text) refers to stm32f4xx_rcc.o(.text) for RCC_AHB1PeriphClockCmd
    led.o(.text) refers to stm32f4xx_gpio.o(.text) for GPIO_Init
    serial.o(.text) refers to kservice.o(.text) for rt_memset
    serial.o(.text) refers to mempool.o(.text) for rt_mp_init
    serial.o(.text) refers to stm32f4xx_usart.o(.text) for USART_Cmd
    serial.o(.text) refers to context_rvds.o(.text) for rt_hw_interrupt_disable
    serial.o(.text) refers to stm32f4xx_dma.o(.text) for DMA_Cmd
    serial.o(.text) refers to device.o(.text) for rt_device_register
    serial.o(.text) refers to serial.o(.constdata) for __FUNCTION__
    settings.o(.text) refers to kservice.o(.text) for rt_kprintf
    settings.o(.text) refers to dfs_posix.o(.text) for open
    settings.o(.text) refers to dmul.o(x$fpl$dmul) for __aeabi_dmul
    settings.o(.text) refers to dfix.o(x$fpl$dfix) for __aeabi_d2iz
    settings.o(.text) refers to settings.o(.bss) for settings
    settings.o(.text) refers to application.o(.bss) for p_angle_pid
    settings.o(.text) refers to dflt_clz.o(x$fpl$dflt) for __aeabi_i2d
    settings.o(.text) refers to ddiv.o(x$fpl$ddiv) for __aeabi_ddiv
    settings.o(.text) refers to pid.o(.text) for PID_Init
    settings.o(.text) refers to device.o(.text) for rt_device_open
    settings.o(.text) refers to mem.o(.text) for rt_malloc
    settings.o(.text) refers to application.o(.data) for en_out_ahrs
    settings.o(.text) refers to clock.o(.text) for rt_tick_get
    settings.o(FSymTab) refers to settings.o(.constdata) for __fsym_save_name
    settings.o(FSymTab) refers to settings.o(.text) for save
    spi2.o(.text) refers to stm32f4xx_gpio.o(.text) for GPIO_WriteBit
    spi2.o(.text) refers to spi_core.o(.text) for rt_spi_bus_attach_device
    spi2.o(.text) refers to spi_flash_w25qxx.o(.text) for w25qxx_init
    spi2.o(.text) refers to stm32f4xx_spi.o(.text) for SPI_I2S_GetFlagStatus
    spi2.o(.text) refers to stm32f4xx_rcc.o(.text) for RCC_AHB1PeriphClockCmd
    spi2.o(.text) refers to spi2.o(.data) for flash_cs
    spi2.o(.text) refers to spi2.o(.bss) for spi_flash
    spi2.o(.text) refers to spi2.o(.constdata) for spi2_ops
    spi2.o(.constdata) refers to spi2.o(.text) for spi2_configure
    spi2.o(.data) refers to spi2.o(.text) for flash_select
    stm32_iic.o(.text) refers to stm32f4xx_rcc.o(.text) for RCC_AHB1PeriphClockCmd
    stm32_iic.o(.text) refers to stm32f4xx_gpio.o(.text) for GPIO_Init
    stm32f4xx_it.o(.text) refers to irq.o(.text) for rt_interrupt_enter
    stm32f4xx_it.o(.text) refers to serial.o(.text) for rt_hw_serial_isr
    stm32f4xx_it.o(.text) refers to usart.o(.bss) for uart2_device
    usart.o(.text) refers to stm32f4xx_rcc.o(.text) for RCC_AHB1PeriphClockCmd
    usart.o(.text) refers to stm32f4xx_gpio.o(.text) for GPIO_Init
    usart.o(.text) refers to misc.o(.text) for NVIC_Init
    usart.o(.text) refers to stm32f4xx_usart.o(.text) for USART_Init
    usart.o(.text) refers to serial.o(.text) for rt_hw_serial_register
    usart.o(.text) refers to usart.o(.data) for uart2
    usart.o(.text) refers to usart.o(.bss) for uart2_device
    usart.o(.data) refers to usart.o(.bss) for uart2_int_rx
    inv_mpu.o(.text) refers to stm32_iic.o(.text) for i2cwrite
    inv_mpu.o(.text) refers to thread.o(.text) for rt_thread_delay
    inv_mpu.o(.text) refers to inv_mpu.o(.data) for st
    inv_mpu.o(.text) refers to kservice.o(.text) for rt_kprintf
    inv_mpu.o(.text) refers to inv_mpu.o(.conststring) for .conststring
    inv_mpu.o(.text) refers to inv_mpu.o(.constdata) for test
    inv_mpu.o(.text) refers to llsdiv.o(.text) for __aeabi_ldivmod
    inv_mpu.o(.text) refers to memcmp.o(.text) for memcmp
    inv_mpu.o(.data) refers to inv_mpu.o(.constdata) for reg
    inv_mpu_dmp_motion_driver.o(.text) refers to inv_mpu.o(.text) for mpu_load_firmware
    inv_mpu_dmp_motion_driver.o(.text) refers to inv_mpu_dmp_motion_driver.o(.constdata) for dmp_memory
    inv_mpu_dmp_motion_driver.o(.text) refers to inv_mpu_dmp_motion_driver.o(.bss) for dmp
    inv_mpu_dmp_motion_driver.o(.text) refers to aeabi_memset.o(.text) for __aeabi_memset
    sonar.o(.text) refers to kservice.o(.text) for rt_kprintf
    sonar.o(.text) refers to stm32f4xx_gpio.o(.text) for GPIO_SetBits
    sonar.o(.text) refers to thread.o(.text) for rt_thread_delay
    sonar.o(.text) refers to ahrs.o(.text) for MoveAve_WMA
    sonar.o(.text) refers to stm32f4xx_rcc.o(.text) for RCC_AHB1PeriphClockCmd
    sonar.o(.text) refers to sonar.o(.bss) for sonar_avr
    sonar.o(.text) refers to pwm.o(.data) for PWM8_Time
    sonar.o(.text) refers to sonar.o(.data) for sonar_h
    sonar.o(VSymTab) refers to sonar.o(.constdata) for __vsym_h_name
    sonar.o(VSymTab) refers to sonar.o(.data) for h
    system_stm32f4xx.o(.text) refers to system_stm32f4xx.o(.data) for SystemCoreClock
    misc.o(.text) refers to startup.o(.text) for assert_failed
    stm32f4xx_adc.o(.text) refers to stm32f4xx_rcc.o(.text) for RCC_APB2PeriphResetCmd
    stm32f4xx_adc.o(.text) refers to startup.o(.text) for assert_failed
    stm32f4xx_can.o(.text) refers to startup.o(.text) for assert_failed
    stm32f4xx_can.o(.text) refers to stm32f4xx_rcc.o(.text) for RCC_APB1PeriphResetCmd
    stm32f4xx_cryp.o(.text) refers to stm32f4xx_rcc.o(.text) for RCC_AHB2PeriphResetCmd
    stm32f4xx_cryp.o(.text) refers to startup.o(.text) for assert_failed
    stm32f4xx_cryp_aes.o(.text) refers to stm32f4xx_cryp.o(.text) for CRYP_KeyStructInit
    stm32f4xx_cryp_des.o(.text) refers to stm32f4xx_cryp.o(.text) for CRYP_KeyStructInit
    stm32f4xx_cryp_tdes.o(.text) refers to stm32f4xx_cryp.o(.text) for CRYP_KeyStructInit
    stm32f4xx_dac.o(.text) refers to stm32f4xx_rcc.o(.text) for RCC_APB1PeriphResetCmd
    stm32f4xx_dac.o(.text) refers to startup.o(.text) for assert_failed
    stm32f4xx_dbgmcu.o(.text) refers to startup.o(.text) for assert_failed
    stm32f4xx_dcmi.o(.text) refers to startup.o(.text) for assert_failed
    stm32f4xx_dma.o(.text) refers to startup.o(.text) for assert_failed
    stm32f4xx_exti.o(.text) refers to startup.o(.text) for assert_failed
    stm32f4xx_flash.o(.text) refers to startup.o(.text) for assert_failed
    stm32f4xx_fsmc.o(.text) refers to startup.o(.text) for assert_failed
    stm32f4xx_gpio.o(.text) refers to startup.o(.text) for assert_failed
    stm32f4xx_gpio.o(.text) refers to stm32f4xx_rcc.o(.text) for RCC_AHB1PeriphResetCmd
    stm32f4xx_hash.o(.text) refers to stm32f4xx_rcc.o(.text) for RCC_AHB2PeriphResetCmd
    stm32f4xx_hash.o(.text) refers to startup.o(.text) for assert_failed
    stm32f4xx_hash_md5.o(.text) refers to stm32f4xx_hash.o(.text) for HASH_DeInit
    stm32f4xx_hash_sha1.o(.text) refers to stm32f4xx_hash.o(.text) for HASH_DeInit
    stm32f4xx_i2c.o(.text) refers to startup.o(.text) for assert_failed
    stm32f4xx_i2c.o(.text) refers to stm32f4xx_rcc.o(.text) for RCC_APB1PeriphResetCmd
    stm32f4xx_iwdg.o(.text) refers to startup.o(.text) for assert_failed
    stm32f4xx_pwr.o(.text) refers to stm32f4xx_rcc.o(.text) for RCC_APB1PeriphResetCmd
    stm32f4xx_pwr.o(.text) refers to startup.o(.text) for assert_failed
    stm32f4xx_rcc.o(.text) refers to startup.o(.text) for assert_failed
    stm32f4xx_rcc.o(.text) refers to stm32f4xx_rcc.o(.data) for APBAHBPrescTable
    stm32f4xx_rng.o(.text) refers to stm32f4xx_rcc.o(.text) for RCC_AHB2PeriphResetCmd
    stm32f4xx_rng.o(.text) refers to startup.o(.text) for assert_failed
    stm32f4xx_rtc.o(.text) refers to startup.o(.text) for assert_failed
    stm32f4xx_sdio.o(.text) refers to stm32f4xx_rcc.o(.text) for RCC_APB2PeriphResetCmd
    stm32f4xx_sdio.o(.text) refers to startup.o(.text) for assert_failed
    stm32f4xx_spi.o(.text) refers to startup.o(.text) for assert_failed
    stm32f4xx_spi.o(.text) refers to stm32f4xx_rcc.o(.text) for RCC_APB2PeriphResetCmd
    stm32f4xx_syscfg.o(.text) refers to stm32f4xx_rcc.o(.text) for RCC_APB2PeriphResetCmd
    stm32f4xx_syscfg.o(.text) refers to startup.o(.text) for assert_failed
    stm32f4xx_tim.o(.text) refers to startup.o(.text) for assert_failed
    stm32f4xx_tim.o(.text) refers to stm32f4xx_rcc.o(.text) for RCC_APB2PeriphResetCmd
    stm32f4xx_usart.o(.text) refers to startup.o(.text) for assert_failed
    stm32f4xx_usart.o(.text) refers to stm32f4xx_rcc.o(.text) for RCC_APB2PeriphResetCmd
    stm32f4xx_wwdg.o(.text) refers to stm32f4xx_rcc.o(.text) for RCC_APB1PeriphResetCmd
    stm32f4xx_wwdg.o(.text) refers to startup.o(.text) for assert_failed
    startup_stm32f4xx.o(STACK) refers (Special) to heapauxi.o(.text) for __use_two_region_memory
    startup_stm32f4xx.o(HEAP) refers (Special) to heapauxi.o(.text) for __use_two_region_memory
    startup_stm32f4xx.o(RESET) refers (Special) to heapauxi.o(.text) for __use_two_region_memory
    startup_stm32f4xx.o(RESET) refers to startup_stm32f4xx.o(STACK) for __initial_sp
    startup_stm32f4xx.o(RESET) refers to startup_stm32f4xx.o(.text) for Reset_Handler
    startup_stm32f4xx.o(RESET) refers to stm32f4xx_it.o(.text) for NMI_Handler
    startup_stm32f4xx.o(RESET) refers to context_rvds.o(.text) for HardFault_Handler
    startup_stm32f4xx.o(RESET) refers to board.o(.text) for SysTick_Handler
    startup_stm32f4xx.o(RESET) refers to pwm.o(.text) for TIM3_IRQHandler
    startup_stm32f4xx.o(.text) refers (Special) to heapauxi.o(.text) for __use_two_region_memory
    startup_stm32f4xx.o(.text) refers to system_stm32f4xx.o(.text) for SystemInit
    startup_stm32f4xx.o(.text) refers to __main.o(!!!main) for __main
    startup_stm32f4xx.o(.text) refers to startup_stm32f4xx.o(HEAP) for Heap_Mem
    startup_stm32f4xx.o(.text) refers to startup_stm32f4xx.o(STACK) for Stack_Mem
    clock.o(.text) refers to context_rvds.o(.text) for rt_hw_interrupt_disable
    clock.o(.text) refers to thread.o(.text) for rt_thread_self
    clock.o(.text) refers to timer.o(.text) for rt_timer_check
    clock.o(.text) refers to clock.o(.data) for rt_tick
    device.o(.text) refers to thread.o(.text) for rt_thread_self
    device.o(.text) refers to scheduler.o(.text) for rt_enter_critical
    device.o(.text) refers to kservice.o(.text) for rt_strncmp
    device.o(.text) refers to object.o(.text) for rt_object_init
    device.o(.text) refers to object.o(.data) for rt_object_container
    device.o(.text) refers to device.o(.constdata) for __FUNCTION__
    idle.o(.text) refers to context_rvds.o(.text) for rt_hw_interrupt_disable
    idle.o(.text) refers to irq.o(.text) for rt_interrupt_get_nest
    idle.o(.text) refers to kservice.o(.text) for rt_kprintf
    idle.o(.text) refers to object.o(.text) for rt_object_is_systemobject
    idle.o(.text) refers to mem.o(.text) for rt_free
    idle.o(.text) refers to thread.o(.text) for rt_thread_init
    idle.o(.text) refers to idle.o(.data) for rt_thread_idle_hook
    idle.o(.text) refers to idle.o(.constdata) for __FUNCTION__
    idle.o(.text) refers to scheduler.o(.data) for rt_thread_defunct
    idle.o(.text) refers to idle.o(.bss) for rt_thread_stack
    ipc.o(.text) refers to thread.o(.text) for rt_thread_suspend
    ipc.o(.text) refers to context_rvds.o(.text) for rt_hw_interrupt_disable
    ipc.o(.text) refers to kservice.o(.text) for rt_kprintf
    ipc.o(.text) refers to object.o(.text) for rt_object_init
    ipc.o(.text) refers to irq.o(.text) for rt_interrupt_get_nest
    ipc.o(.text) refers to timer.o(.text) for rt_timer_control
    ipc.o(.text) refers to scheduler.o(.text) for rt_schedule
    ipc.o(.text) refers to ipc.o(.constdata) for __FUNCTION__
    ipc.o(.text) refers to object.o(.data) for rt_object_trytake_hook
    ipc.o(.text) refers to mem.o(.text) for rt_malloc
    ipc.o(.text) refers to clock.o(.text) for rt_tick_get
    irq.o(.text) refers to context_rvds.o(.text) for rt_hw_interrupt_disable
    irq.o(.text) refers to irq.o(.data) for rt_interrupt_nest
    kservice.o(.text) refers to irq.o(.text) for rt_interrupt_get_nest
    kservice.o(.text) refers to thread.o(.text) for rt_thread_self
    kservice.o(.text) refers to mem.o(.text) for rt_malloc
    kservice.o(.text) refers to kservice.o(.data) for _errno
    kservice.o(.text) refers to kservice.o(.constdata) for large_digits
    kservice.o(.text) refers to device.o(.text) for rt_device_write
    kservice.o(.text) refers to kservice.o(.bss) for rt_log_buf
    mem.o(.text) refers to kservice.o(.text) for rt_kprintf
    mem.o(.text) refers to context_rvds.o(.text) for rt_hw_interrupt_disable
    mem.o(.text) refers to irq.o(.text) for rt_interrupt_get_nest
    mem.o(.text) refers to ipc.o(.text) for rt_sem_init
    mem.o(.text) refers to mem.o(.data) for rt_malloc_hook
    mem.o(.text) refers to mem.o(.constdata) for __FUNCTION__
    mem.o(.text) refers to mem.o(.bss) for heap_sem
    mem.o(.text) refers to mem.o(.conststring) for .conststring
    mem.o(FSymTab) refers to mem.o(.constdata) for __fsym_list_mem_name
    mem.o(FSymTab) refers to mem.o(.text) for list_mem
    mempool.o(.text) refers to kservice.o(.text) for rt_kprintf
    mempool.o(.text) refers to object.o(.text) for rt_object_init
    mempool.o(.text) refers to context_rvds.o(.text) for rt_hw_interrupt_disable
    mempool.o(.text) refers to thread.o(.text) for rt_thread_resume
    mempool.o(.text) refers to irq.o(.text) for rt_interrupt_get_nest
    mempool.o(.text) refers to mem.o(.text) for rt_malloc
    mempool.o(.text) refers to timer.o(.text) for rt_timer_control
    mempool.o(.text) refers to scheduler.o(.text) for rt_schedule
    mempool.o(.text) refers to mempool.o(.data) for rt_mp_alloc_hook
    mempool.o(.text) refers to mempool.o(.constdata) for __FUNCTION__
    object.o(.text) refers to kservice.o(.text) for rt_strncpy
    object.o(.text) refers to context_rvds.o(.text) for rt_hw_interrupt_disable
    object.o(.text) refers to irq.o(.text) for rt_interrupt_get_nest
    object.o(.text) refers to mem.o(.text) for rt_malloc
    object.o(.text) refers to scheduler.o(.text) for rt_enter_critical
    object.o(.text) refers to object.o(.data) for rt_object_attach_hook
    object.o(.text) refers to object.o(.constdata) for __FUNCTION__
    scheduler.o(.text) refers to kservice.o(.text) for rt_kprintf
    scheduler.o(.text) refers to cmd.o(.text) for list_thread
    scheduler.o(.text) refers to context_rvds.o(.text) for rt_hw_interrupt_disable
    scheduler.o(.text) refers to scheduler.o(.data) for rt_scheduler_hook
    scheduler.o(.text) refers to scheduler.o(.constdata) for __FUNCTION__
    scheduler.o(.text) refers to scheduler.o(.bss) for rt_thread_priority_table
    scheduler.o(.text) refers to irq.o(.data) for rt_interrupt_nest
    thread.o(.text) refers to context_rvds.o(.text) for rt_hw_interrupt_disable
    thread.o(.text) refers to scheduler.o(.text) for rt_schedule_remove_thread
    thread.o(.text) refers to timer.o(.text) for rt_timer_detach
    thread.o(.text) refers to object.o(.text) for rt_object_is_systemobject
    thread.o(.text) refers to kservice.o(.text) for rt_kprintf
    thread.o(.text) refers to cpuport.o(.text) for rt_hw_stack_init
    thread.o(.text) refers to mem.o(.text) for rt_malloc
    thread.o(.text) refers to scheduler.o(.data) for rt_current_thread
    thread.o(.text) refers to thread.o(.constdata) for __FUNCTION__
    thread.o(.text) refers to scheduler.o(.bss) for rt_thread_priority_table
    thread.o(.text) refers to object.o(.data) for rt_object_container
    timer.o(.text) refers to kservice.o(.text) for rt_kprintf
    timer.o(.text) refers to object.o(.text) for rt_object_init
    timer.o(.text) refers to context_rvds.o(.text) for rt_hw_interrupt_disable
    timer.o(.text) refers to clock.o(.text) for rt_tick_get
    timer.o(.text) refers to timer.o(.data) for rt_timer_timeout_hook
    timer.o(.text) refers to timer.o(.constdata) for __FUNCTION__
    timer.o(.text) refers to object.o(.data) for rt_object_take_hook
    cpuport.o(.text) refers to kservice.o(.text) for rt_kprintf
    cpuport.o(.text) refers to thread.o(.text) for rt_thread_self
    cpuport.o(.text) refers to cmd.o(.text) for list_thread
    cpuport.o(.text) refers to cpuport.o(.data) for rt_exception_hook
    cpuport.o(.text) refers to cpuport.o(.constdata) for __FUNCTION__
    context_rvds.o(.text) refers to cpuport.o(.text) for rt_hw_hard_fault_exception
    context_rvds.o(.text) refers to cpuport.o(.data) for rt_thread_switch_interrupt_flag
    showmem.o(.text) refers to kservice.o(.text) for rt_kprintf
    showmem.o(.text) refers to showmem.o(.constdata) for __FUNCTION__
    dfs.o(.text) refers to kservice.o(.text) for rt_memset
    dfs.o(.text) refers to ipc.o(.text) for rt_mutex_init
    dfs.o(.text) refers to strlen.o(.text) for strlen
    dfs.o(.text) refers to mem.o(.text) for rt_malloc
    dfs.o(.text) refers to dfs_fs.o(.text) for dfs_filesystem_lookup
    dfs.o(.text) refers to strcmpv7m.o(.text) for strcmp
    dfs.o(.text) refers to dfs.o(.bss) for filesystem_operation_table
    dfs.o(.text) refers to dfs.o(.constdata) for __FUNCTION__
    dfs.o(.rti_fn.3) refers to dfs.o(.text) for dfs_init
    dfs_fs.o(.text) refers to dfs.o(.text) for dfs_lock
    dfs_fs.o(.text) refers to strcmpv7m.o(.text) for strcmp
    dfs_fs.o(.text) refers to kservice.o(.text) for rt_kprintf
    dfs_fs.o(.text) refers to strlen.o(.text) for strlen
    dfs_fs.o(.text) refers to strncmp.o(.text) for strncmp
    dfs_fs.o(.text) refers to device.o(.text) for rt_device_find
    dfs_fs.o(.text) refers to dfs_file.o(.text) for dfs_file_open
    dfs_fs.o(.text) refers to mem.o(.text) for rt_free
    dfs_fs.o(.text) refers to dfs.o(.bss) for filesystem_operation_table
    dfs_fs.o(.text) refers to dfs_fs.o(.constdata) for __FUNCTION__
    dfs_fs.o(FSymTab) refers to dfs_fs.o(.constdata) for __fsym_mkfs_name
    dfs_fs.o(FSymTab) refers to dfs_fs.o(.text) for mkfs
    dfs_file.o(.text) refers to dfs.o(.text) for dfs_normalize_path
    dfs_file.o(.text) refers to dfs_fs.o(.text) for dfs_filesystem_lookup
    dfs_file.o(.text) refers to mem.o(.text) for rt_free
    dfs_file.o(.text) refers to kservice.o(.text) for rt_strdup
    dfs_file.o(.text) refers to strcmpv7m.o(.text) for strcmp
    dfs_file.o(.text) refers to dfs_posix.o(.text) for mkdir
    dfs_file.o(.text) refers to strrchr.o(.text) for strrchr
    dfs_file.o(.text) refers to dfs_file.o(.bss) for fd
    dfs_file.o(FSymTab) refers to dfs_file.o(.constdata) for __fsym_ls_name
    dfs_file.o(FSymTab) refers to dfs_file.o(.text) for ls
    dfs_posix.o(.text) refers to dfs.o(.text) for fd_new
    dfs_posix.o(.text) refers to kservice.o(.text) for rt_set_errno
    dfs_posix.o(.text) refers to dfs_file.o(.text) for dfs_file_open
    dfs_posix.o(.text) refers to dfs_fs.o(.text) for dfs_statfs
    dfs_posix.o(.text) refers to mem.o(.text) for rt_malloc
    dfs_posix.o(FSymTab) refers to dfs_posix.o(.constdata) for __fsym_mkdir_name
    dfs_posix.o(FSymTab) refers to dfs_posix.o(.text) for mkdir
    dfs_elm.o(.text) refers to device.o(.text) for rt_device_control
    dfs_elm.o(.text) refers to kservice.o(.text) for rt_kprintf
    dfs_elm.o(.text) refers to mem.o(.text) for rt_malloc
    dfs_elm.o(.text) refers to ff.o(.text) for f_mount
    dfs_elm.o(.text) refers to dfs_elm.o(.data) for disk
    dfs_elm.o(.text) refers to dfs_elm.o(.conststring) for .conststring
    dfs_elm.o(.text) refers to dfs_elm.o(.constdata) for __FUNCTION__
    dfs_elm.o(.text) refers to rt_memclr_w.o(.text) for __aeabi_memclr4
    dfs_elm.o(.text) refers to mktime.o(.text) for mktime
    dfs_elm.o(.text) refers to dfs_fs.o(.text) for dfs_register
    dfs_elm.o(.text) refers to ipc.o(.text) for rt_mutex_create
    dfs_elm.o(.constdata) refers to dfs_elm.o(.conststring) for .conststring
    dfs_elm.o(.constdata) refers to dfs_elm.o(.text) for dfs_elm_mount
    dfs_elm.o(.rti_fn.4) refers to dfs_elm.o(.text) for elm_init
    ff.o(.text) refers to dfs_elm.o(.text) for ff_req_grant
    ff.o(.text) refers to ff.o(.data) for FatFs
    ff.o(.text) refers to ff.o(.constdata) for vst
    dfs_romfs.o(.text) refers to kservice.o(.text) for rt_strncmp
    dfs_romfs.o(.text) refers to rt_memcpy_v6.o(.text) for __aeabi_memcpy
    dfs_romfs.o(.text) refers to dfs_fs.o(.text) for dfs_register
    dfs_romfs.o(.text) refers to dfs_romfs.o(.constdata) for __FUNCTION__
    dfs_romfs.o(.constdata) refers to dfs_romfs.o(.conststring) for .conststring
    dfs_romfs.o(.constdata) refers to dfs_romfs.o(.text) for dfs_romfs_mount
    dfs_romfs.o(.rti_fn.4) refers to dfs_romfs.o(.text) for dfs_romfs_init
    romfs.o(.constdata) refers to romfs.o(.conststring) for .conststring
    i2c_core.o(.text) refers to ipc.o(.text) for rt_mutex_init
    i2c_core.o(.text) refers to i2c_dev.o(.text) for rt_i2c_bus_device_device_init
    i2c_core.o(.text) refers to kservice.o(.text) for rt_kprintf
    i2c_core.o(.text) refers to device.o(.text) for rt_device_find
    i2c_core.o(.text) refers to i2c_core.o(.bss) for i2c_core_lock
    i2c_core.o(.text) refers to i2c_core.o(.constdata) for __FUNCTION__
    i2c_core.o(.rti_fn.3) refers to i2c_core.o(.text) for rt_i2c_core_init
    i2c_dev.o(.text) refers to kservice.o(.text) for rt_kprintf
    i2c_dev.o(.text) refers to i2c_core.o(.text) for rt_i2c_master_recv
    i2c_dev.o(.text) refers to device.o(.text) for rt_device_register
    i2c_dev.o(.text) refers to i2c_dev.o(.constdata) for __FUNCTION__
    spi_core.o(.text) refers to spi_dev.o(.text) for rt_spi_bus_device_init
    spi_core.o(.text) refers to ipc.o(.text) for rt_mutex_init
    spi_core.o(.text) refers to device.o(.text) for rt_device_find
    spi_core.o(.text) refers to kservice.o(.text) for rt_memset
    spi_core.o(.text) refers to spi_core.o(.constdata) for __FUNCTION__
    spi_dev.o(.text) refers to kservice.o(.text) for rt_kprintf
    spi_dev.o(.text) refers to spi_core.o(.text) for rt_spi_transfer
    spi_dev.o(.text) refers to device.o(.text) for rt_device_register
    spi_dev.o(.text) refers to spi_dev.o(.constdata) for __FUNCTION__
    spi_flash_w25qxx.o(.text) refers to ipc.o(.text) for rt_mutex_take
    spi_flash_w25qxx.o(.text) refers to spi_core.o(.text) for rt_spi_send_then_recv
    spi_flash_w25qxx.o(.text) refers to kservice.o(.text) for rt_kprintf
    spi_flash_w25qxx.o(.text) refers to device.o(.text) for rt_device_find
    spi_flash_w25qxx.o(.text) refers to spi_flash_w25qxx.o(.bss) for spi_flash_device
    spi_flash_w25qxx.o(.text) refers to spi_flash_w25qxx.o(.constdata) for __FUNCTION__
    shell.o(.text) refers to kservice.o(.text) for rt_kprintf
    shell.o(.text) refers to ipc.o(.text) for rt_sem_release
    shell.o(.text) refers to device.o(.text) for rt_device_find
    shell.o(.text) refers to cmd.o(.text) for list_prefix
    shell.o(.text) refers to finsh_parser.o(.text) for finsh_parser_run
    shell.o(.text) refers to finsh_error.o(.text) for finsh_errno
    shell.o(.text) refers to finsh_compiler.o(.text) for finsh_compiler_run
    shell.o(.text) refers to finsh_vm.o(.text) for finsh_vm_run
    shell.o(.text) refers to finsh_init.o(.text) for finsh_stack_bottom
    shell.o(.text) refers to rt_memcpy_v6.o(.text) for __aeabi_memcpy
    shell.o(.text) refers to rt_memclr.o(.text) for __aeabi_memclr
    shell.o(.text) refers to shell.o(.data) for shell
    shell.o(.text) refers to shell.o(.constdata) for __FUNCTION__
    shell.o(.text) refers to strlen.o(.text) for strlen
    shell.o(.text) refers to rt_memclr_w.o(.text) for __aeabi_memclr4
    shell.o(.text) refers to mem.o(.text) for rt_malloc
    shell.o(.text) refers to thread.o(.text) for rt_thread_init
    shell.o(.text) refers to symbol.o(.data) for _syscall_table_begin
    shell.o(.text) refers to shell.o(.bss) for finsh_thread_stack
    shell.o(.rti_fn.3) refers to shell.o(.text) for finsh_system_init
    cmd.o(.text) refers to kservice.o(.text) for rt_kprintf
    cmd.o(.text) refers to clock.o(.text) for rt_tick_get
    cmd.o(.text) refers to cmd.o(.conststring) for .conststring
    cmd.o(.text) refers to object.o(.data) for rt_object_container
    cmd.o(.text) refers to rt_memcpy_w.o(.text) for __aeabi_memcpy4
    cmd.o(.text) refers to strncmp.o(.text) for strncmp
    cmd.o(.text) refers to strlen.o(.text) for strlen
    cmd.o(.text) refers to cmd.o(.constdata) for .constdata
    cmd.o(.text) refers to symbol.o(.data) for _syscall_table_begin
    cmd.o(.text) refers to finsh_vm.o(.data) for global_syscall_list
    cmd.o(.text) refers to finsh_var.o(.data) for global_sysvar_list
    cmd.o(.constdata) refers to cmd.o(.conststring) for .conststring
    cmd.o(FSymTab) refers to cmd.o(.constdata) for __fsym_hello_name
    cmd.o(FSymTab) refers to cmd.o(.text) for hello
    cmd.o(VSymTab) refers to cmd.o(.constdata) for __vsym_dummy_name
    cmd.o(VSymTab) refers to cmd.o(.data) for dummy
    finsh_compiler.o(.text) refers to finsh_compiler.o(.data) for finsh_compile_pc
    finsh_compiler.o(.text) refers to finsh_error.o(.text) for finsh_error_set
    finsh_compiler.o(.text) refers to rt_memclr.o(.text) for __aeabi_memclr
    finsh_compiler.o(.text) refers to finsh_vm.o(.bss) for text_segment
    finsh_error.o(.text) refers to finsh_error.o(.data) for global_errno
    finsh_error.o(.data) refers to finsh_error.o(.conststring) for .conststring
    finsh_heap.o(.text) refers to rt_memclr_w.o(.text) for __aeabi_memclr4
    finsh_heap.o(.text) refers to finsh_heap.o(.bss) for finsh_heap
    finsh_heap.o(.text) refers to finsh_heap.o(.data) for free_list
    finsh_heap.o(.text) refers to finsh_var.o(.bss) for global_variable
    finsh_init.o(.text) refers to finsh_parser.o(.text) for finsh_parser_init
    finsh_init.o(.text) refers to finsh_node.o(.text) for finsh_node_init
    finsh_init.o(.text) refers to finsh_var.o(.text) for finsh_var_init
    finsh_init.o(.text) refers to finsh_error.o(.text) for finsh_error_init
    finsh_init.o(.text) refers to finsh_heap.o(.text) for finsh_heap_init
    finsh_init.o(.text) refers to finsh_vm.o(.bss) for finsh_vm_stack
    finsh_node.o(.text) refers to rt_memclr_w.o(.text) for __aeabi_memclr4
    finsh_node.o(.text) refers to finsh_var.o(.text) for finsh_var_lookup
    finsh_node.o(.text) refers to finsh_vm.o(.text) for finsh_syscall_lookup
    finsh_node.o(.text) refers to finsh_error.o(.text) for finsh_error_set
    finsh_node.o(.text) refers to strlen.o(.text) for strlen
    finsh_node.o(.text) refers to finsh_heap.o(.text) for finsh_heap_allocate
    finsh_node.o(.text) refers to strncpy.o(.text) for strncpy
    finsh_node.o(.text) refers to finsh_node.o(.bss) for global_node_table
    finsh_ops.o(.text) refers to finsh_vm.o(.data) for finsh_sp
    finsh_ops.o(.constdata) refers to finsh_ops.o(.text) for OP_no_op
    finsh_parser.o(.text) refers to finsh_node.o(.text) for finsh_node_allocate
    finsh_parser.o(.text) refers to finsh_error.o(.text) for finsh_error_set
    finsh_parser.o(.text) refers to finsh_token.o(.text) for finsh_token_token
    finsh_parser.o(.text) refers to strncpy.o(.text) for strncpy
    finsh_parser.o(.text) refers to finsh_var.o(.text) for finsh_var_insert
    finsh_parser.o(.text) refers to rt_memclr_w.o(.text) for __aeabi_memclr4
    finsh_var.o(.text) refers to rt_memclr_w.o(.text) for __aeabi_memclr4
    finsh_var.o(.text) refers to strncmp.o(.text) for strncmp
    finsh_var.o(.text) refers to strncpy.o(.text) for strncpy
    finsh_var.o(.text) refers to mem.o(.text) for rt_malloc
    finsh_var.o(.text) refers to kservice.o(.text) for rt_strdup
    finsh_var.o(.text) refers to strcmpv7m.o(.text) for strcmp
    finsh_var.o(.text) refers to strlen.o(.text) for strlen
    finsh_var.o(.text) refers to finsh_var.o(.bss) for global_variable
    finsh_var.o(.text) refers to finsh_var.o(.data) for global_sysvar_list
    finsh_var.o(.text) refers to symbol.o(.data) for _sysvar_table_begin
    finsh_vm.o(.text) refers to mem.o(.text) for rt_malloc
    finsh_vm.o(.text) refers to kservice.o(.text) for rt_strdup
    finsh_vm.o(.text) refers to strcmpv7m.o(.text) for strcmp
    finsh_vm.o(.text) refers to strlen.o(.text) for strlen
    finsh_vm.o(.text) refers to strncmp.o(.text) for strncmp
    finsh_vm.o(.text) refers to finsh_vm.o(.bss) for finsh_vm_stack
    finsh_vm.o(.text) refers to finsh_vm.o(.data) for finsh_sp
    finsh_vm.o(.text) refers to finsh_ops.o(.constdata) for op_table
    finsh_vm.o(.text) refers to symbol.o(.data) for _syscall_table_begin
    finsh_token.o(.text) refers to rt_memclr_w.o(.text) for __aeabi_memclr4
    finsh_token.o(.text) refers to strlen.o(.text) for strlen
    finsh_token.o(.text) refers to finsh_error.o(.text) for finsh_error_set
    finsh_token.o(.text) refers to atoi.o(.text) for atoi
    finsh_token.o(.text) refers to strcmpv7m.o(.text) for strcmp
    finsh_token.o(.text) refers to strncpy.o(.text) for strncpy
    finsh_token.o(.text) refers to finsh_token.o(.constdata) for finsh_name_table
    finsh_token.o(.constdata) refers to finsh_token.o(.conststring) for .conststring
    components.o(.text) refers to components.o(.rti_fn.0) for __rt_init_rti_start
    components.o(.text) refers to components.o(.rti_fn.1.post) for __rt_init_rti_board_end
    components.o(.text) refers to components.o(.rti_fn.7) for __rt_init_rti_end
    components.o(.rti_fn.0) refers to components.o(.text) for rti_start
    components.o(.rti_fn.1.post) refers to components.o(.text) for rti_board_end
    components.o(.rti_fn.7) refers to components.o(.text) for rti_end
    llsdiv.o(.text) refers to lludivv7m.o(.text) for __aeabi_uldivmod
    atoi.o(.text) refers to rt_errno_addr_intlibspace.o(.text) for __aeabi_errno_addr
    atoi.o(.text) refers to strtol.o(.text) for strtol
    rt_memcpy_v6.o(.text) refers to rt_memcpy_w.o(.text) for __aeabi_memcpy4
    aeabi_memset.o(.text) refers to rt_memclr.o(.text) for _memset
    rt_memclr.o(.text) refers to rt_memclr_w.o(.text) for _memset_w
    strncpy.o(.text) refers to rt_memclr.o(.text) for __aeabi_memclr
    mktime.o(.text) refers to _monlen.o(.constdata) for _monlen
    __main.o(!!!main) refers to rtentry.o(.ARM.Collect$$rtentry$$00000000) for __rt_entry
    basic.o(x$fpl$basic) refers (Special) to usenofp.o(x$fpl$usenofp) for __I$use$fp
    d2f.o(x$fpl$d2f) refers (Special) to usenofp.o(x$fpl$usenofp) for __I$use$fp
    d2f.o(x$fpl$d2f) refers to fretinf.o(x$fpl$fretinf) for __fpl_fretinf
    d2f.o(x$fpl$d2f) refers to dnaninf.o(x$fpl$dnaninf) for __fpl_dnaninf
    daddsub_clz.o(x$fpl$dadd) refers (Special) to usenofp.o(x$fpl$usenofp) for __I$use$fp
    daddsub_clz.o(x$fpl$dadd) refers to daddsub_clz.o(x$fpl$dsub) for _dsub1
    daddsub_clz.o(x$fpl$dadd) refers to dretinf.o(x$fpl$dretinf) for __fpl_dretinf
    daddsub_clz.o(x$fpl$dadd) refers to dnaninf.o(x$fpl$dnaninf) for __fpl_dnaninf
    daddsub_clz.o(x$fpl$drsb) refers (Special) to usenofp.o(x$fpl$usenofp) for __I$use$fp
    daddsub_clz.o(x$fpl$drsb) refers to daddsub_clz.o(x$fpl$dadd) for _dadd1
    daddsub_clz.o(x$fpl$drsb) refers to daddsub_clz.o(x$fpl$dsub) for _dsub1
    daddsub_clz.o(x$fpl$dsub) refers (Special) to usenofp.o(x$fpl$usenofp) for __I$use$fp
    daddsub_clz.o(x$fpl$dsub) refers to daddsub_clz.o(x$fpl$dadd) for _dadd1
    daddsub_clz.o(x$fpl$dsub) refers to dnaninf.o(x$fpl$dnaninf) for __fpl_dnaninf
    ddiv.o(x$fpl$drdiv) refers (Special) to usenofp.o(x$fpl$usenofp) for __I$use$fp
    ddiv.o(x$fpl$drdiv) refers to ddiv.o(x$fpl$ddiv) for ddiv_entry
    ddiv.o(x$fpl$ddiv) refers (Special) to usenofp.o(x$fpl$usenofp) for __I$use$fp
    ddiv.o(x$fpl$ddiv) refers to dretinf.o(x$fpl$dretinf) for __fpl_dretinf
    ddiv.o(x$fpl$ddiv) refers to dnaninf.o(x$fpl$dnaninf) for __fpl_dnaninf
    dfix.o(x$fpl$dfix) refers (Special) to usenofp.o(x$fpl$usenofp) for __I$use$fp
    dfix.o(x$fpl$dfix) refers to dnaninf.o(x$fpl$dnaninf) for __fpl_dnaninf
    dfix.o(x$fpl$dfixr) refers (Special) to usenofp.o(x$fpl$usenofp) for __I$use$fp
    dfix.o(x$fpl$dfixr) refers to dnaninf.o(x$fpl$dnaninf) for __fpl_dnaninf
    dfixu.o(x$fpl$dfixu) refers (Special) to usenofp.o(x$fpl$usenofp) for __I$use$fp
    dfixu.o(x$fpl$dfixu) refers to dnaninf.o(x$fpl$dnaninf) for __fpl_dnaninf
    dfixu.o(x$fpl$dfixur) refers (Special) to usenofp.o(x$fpl$usenofp) for __I$use$fp
    dfixu.o(x$fpl$dfixur) refers to dnaninf.o(x$fpl$dnaninf) for __fpl_dnaninf
    dflt_clz.o(x$fpl$dfltu) refers (Special) to usenofp.o(x$fpl$usenofp) for __I$use$fp
    dflt_clz.o(x$fpl$dflt) refers (Special) to usenofp.o(x$fpl$usenofp) for __I$use$fp
    dflt_clz.o(x$fpl$dfltn) refers (Special) to usenofp.o(x$fpl$usenofp) for __I$use$fp
    dleqf.o(x$fpl$dleqf) refers (Special) to usenofp.o(x$fpl$usenofp) for __I$use$fp
    dleqf.o(x$fpl$dleqf) refers to dnaninf.o(x$fpl$dnaninf) for __fpl_dnaninf
    dleqf.o(x$fpl$dleqf) refers to dcmpi.o(x$fpl$dcmpinf) for __fpl_dcmp_Inf
    dmul.o(x$fpl$dmul) refers (Special) to usenofp.o(x$fpl$usenofp) for __I$use$fp
    dmul.o(x$fpl$dmul) refers to dretinf.o(x$fpl$dretinf) for __fpl_dretinf
    dmul.o(x$fpl$dmul) refers to dnaninf.o(x$fpl$dnaninf) for __fpl_dnaninf
    drleqf.o(x$fpl$drleqf) refers (Special) to usenofp.o(x$fpl$usenofp) for __I$use$fp
    drleqf.o(x$fpl$drleqf) refers to dleqf.o(x$fpl$dleqf) for __fpl_dcmple_InfNaN
    f2d.o(x$fpl$f2d) refers (Special) to usenofp.o(x$fpl$usenofp) for __I$use$fp
    f2d.o(x$fpl$f2d) refers to fnaninf.o(x$fpl$fnaninf) for __fpl_fnaninf
    f2d.o(x$fpl$f2d) refers to dretinf.o(x$fpl$dretinf) for __fpl_dretinf
    asin.o(i.__hardfp_asin) refers (Special) to usenofp.o(x$fpl$usenofp) for __I$use$fp
    asin.o(i.__hardfp_asin) refers to daddsub_clz.o(x$fpl$dadd) for __aeabi_dadd
    asin.o(i.__hardfp_asin) refers to dmul.o(x$fpl$dmul) for __aeabi_dmul
    asin.o(i.__hardfp_asin) refers to _rserrno.o(.text) for __set_errno
    asin.o(i.__hardfp_asin) refers to ddiv.o(x$fpl$ddiv) for __aeabi_ddiv
    asin.o(i.__hardfp_asin) refers to fpclassify.o(i.__ARM_fpclassify) for __ARM_fpclassify
    asin.o(i.__hardfp_asin) refers to dunder.o(i.__mathlib_dbl_underflow) for __mathlib_dbl_underflow
    asin.o(i.__hardfp_asin) refers to poly.o(i.__kernel_poly) for __kernel_poly
    asin.o(i.__hardfp_asin) refers to fabs.o(i.fabs) for fabs
    asin.o(i.__hardfp_asin) refers to daddsub_clz.o(x$fpl$drsb) for __aeabi_drsub
    asin.o(i.__hardfp_asin) refers to sqrt.o(i.sqrt) for sqrt
    asin.o(i.__hardfp_asin) refers to daddsub_clz.o(x$fpl$dsub) for __aeabi_dsub
    asin.o(i.__hardfp_asin) refers to basic.o(x$fpl$basic) for __aeabi_dneg
    asin.o(i.__hardfp_asin) refers to asin.o(.constdata) for .constdata
    asin.o(i.__softfp_asin) refers (Special) to usenofp.o(x$fpl$usenofp) for __I$use$fp
    asin.o(i.__softfp_asin) refers to asin.o(i.__hardfp_asin) for __hardfp_asin
    asin.o(i.asin) refers (Special) to usenofp.o(x$fpl$usenofp) for __I$use$fp
    asin.o(i.asin) refers to asin.o(i.__hardfp_asin) for __hardfp_asin
    asin.o(.constdata) refers (Special) to usenofp.o(x$fpl$usenofp) for __I$use$fp
    asin_x.o(i.____hardfp_asin$lsc) refers (Special) to usenofp.o(x$fpl$usenofp) for __I$use$fp
    asin_x.o(i.____hardfp_asin$lsc) refers to daddsub_clz.o(x$fpl$dadd) for __aeabi_dadd
    asin_x.o(i.____hardfp_asin$lsc) refers to dmul.o(x$fpl$dmul) for __aeabi_dmul
    asin_x.o(i.____hardfp_asin$lsc) refers to _rserrno.o(.text) for __set_errno
    asin_x.o(i.____hardfp_asin$lsc) refers to poly.o(i.__kernel_poly) for __kernel_poly
    asin_x.o(i.____hardfp_asin$lsc) refers to ddiv.o(x$fpl$ddiv) for __aeabi_ddiv
    asin_x.o(i.____hardfp_asin$lsc) refers to fabs.o(i.fabs) for fabs
    asin_x.o(i.____hardfp_asin$lsc) refers to daddsub_clz.o(x$fpl$drsb) for __aeabi_drsub
    asin_x.o(i.____hardfp_asin$lsc) refers to sqrt.o(i.sqrt) for sqrt
    asin_x.o(i.____hardfp_asin$lsc) refers to daddsub_clz.o(x$fpl$dsub) for __aeabi_dsub
    asin_x.o(i.____hardfp_asin$lsc) refers to basic.o(x$fpl$basic) for __aeabi_dneg
    asin_x.o(i.____hardfp_asin$lsc) refers to asin_x.o(.constdata) for .constdata
    asin_x.o(i.____softfp_asin$lsc) refers (Special) to usenofp.o(x$fpl$usenofp) for __I$use$fp
    asin_x.o(i.____softfp_asin$lsc) refers to asin_x.o(i.____hardfp_asin$lsc) for ____hardfp_asin$lsc
    asin_x.o(i.__asin$lsc) refers (Special) to usenofp.o(x$fpl$usenofp) for __I$use$fp
    asin_x.o(i.__asin$lsc) refers to asin_x.o(i.____hardfp_asin$lsc) for ____hardfp_asin$lsc
    asin_x.o(.constdata) refers (Special) to usenofp.o(x$fpl$usenofp) for __I$use$fp
    asinf.o(i.__hardfp_asinf) refers (Special) to usenofp.o(x$fpl$usenofp) for __I$use$fp
    asinf.o(i.__hardfp_asinf) refers to sqrtf.o(i.sqrtf) for sqrtf
    asinf.o(i.__hardfp_asinf) refers to fpclassifyf.o(i.__ARM_fpclassifyf) for __ARM_fpclassifyf
    asinf.o(i.__hardfp_asinf) refers to funder.o(i.__mathlib_flt_underflow) for __mathlib_flt_underflow
    asinf.o(i.__hardfp_asinf) refers to _rserrno.o(.text) for __set_errno
    asinf.o(i.__softfp_asinf) refers (Special) to usenofp.o(x$fpl$usenofp) for __I$use$fp
    asinf.o(i.__softfp_asinf) refers to asinf.o(i.__hardfp_asinf) for __hardfp_asinf
    asinf.o(i.asinf) refers (Special) to usenofp.o(x$fpl$usenofp) for __I$use$fp
    asinf.o(i.asinf) refers to asinf.o(i.__hardfp_asinf) for __hardfp_asinf
    asinf_x.o(i.____hardfp_asinf$lsc) refers (Special) to usenofp.o(x$fpl$usenofp) for __I$use$fp
    asinf_x.o(i.____hardfp_asinf$lsc) refers to sqrtf.o(i.sqrtf) for sqrtf
    asinf_x.o(i.____hardfp_asinf$lsc) refers to _rserrno.o(.text) for __set_errno
    asinf_x.o(i.____softfp_asinf$lsc) refers (Special) to usenofp.o(x$fpl$usenofp) for __I$use$fp
    asinf_x.o(i.____softfp_asinf$lsc) refers to asinf_x.o(i.____hardfp_asinf$lsc) for ____hardfp_asinf$lsc
    asinf_x.o(i.__asinf$lsc) refers (Special) to usenofp.o(x$fpl$usenofp) for __I$use$fp
    asinf_x.o(i.__asinf$lsc) refers to asinf_x.o(i.____hardfp_asinf$lsc) for ____hardfp_asinf$lsc
    atan2.o(i.__hardfp_atan2) refers (Special) to usenofp.o(x$fpl$usenofp) for __I$use$fp
    atan2.o(i.__hardfp_atan2) refers to daddsub_clz.o(x$fpl$dadd) for __aeabi_dadd
    atan2.o(i.__hardfp_atan2) refers to atan.o(i.atan) for atan
    atan2.o(i.__hardfp_atan2) refers to basic.o(x$fpl$basic) for __aeabi_dneg
    atan2.o(i.__hardfp_atan2) refers to ddiv.o(x$fpl$ddiv) for __aeabi_ddiv
    atan2.o(i.__hardfp_atan2) refers to fabs.o(i.fabs) for fabs
    atan2.o(i.__hardfp_atan2) refers to daddsub_clz.o(x$fpl$dsub) for __aeabi_dsub
    atan2.o(i.__hardfp_atan2) refers to daddsub_clz.o(x$fpl$drsb) for __aeabi_drsub
    atan2.o(i.__hardfp_atan2) refers to qnan.o(.constdata) for __mathlib_zero
    atan2.o(i.__softfp_atan2) refers (Special) to usenofp.o(x$fpl$usenofp) for __I$use$fp
    atan2.o(i.__softfp_atan2) refers to atan2.o(i.__hardfp_atan2) for __hardfp_atan2
    atan2.o(i.atan2) refers (Special) to usenofp.o(x$fpl$usenofp) for __I$use$fp
    atan2.o(i.atan2) refers to atan2.o(i.__hardfp_atan2) for __hardfp_atan2
    atan2_x.o(i.____hardfp_atan2$lsc) refers (Special) to usenofp.o(x$fpl$usenofp) for __I$use$fp
    atan2_x.o(i.____hardfp_atan2$lsc) refers to daddsub_clz.o(x$fpl$dadd) for __aeabi_dadd
    atan2_x.o(i.____hardfp_atan2$lsc) refers to atan.o(i.atan) for atan
    atan2_x.o(i.____hardfp_atan2$lsc) refers to _rserrno.o(.text) for __set_errno
    atan2_x.o(i.____hardfp_atan2$lsc) refers to basic.o(x$fpl$basic) for __aeabi_dneg
    atan2_x.o(i.____hardfp_atan2$lsc) refers to ddiv.o(x$fpl$ddiv) for __aeabi_ddiv
    atan2_x.o(i.____hardfp_atan2$lsc) refers to fabs.o(i.fabs) for fabs
    atan2_x.o(i.____hardfp_atan2$lsc) refers to daddsub_clz.o(x$fpl$dsub) for __aeabi_dsub
    atan2_x.o(i.____hardfp_atan2$lsc) refers to daddsub_clz.o(x$fpl$drsb) for __aeabi_drsub
    atan2_x.o(i.____hardfp_atan2$lsc) refers to qnan.o(.constdata) for __mathlib_zero
    atan2_x.o(i.____softfp_atan2$lsc) refers (Special) to usenofp.o(x$fpl$usenofp) for __I$use$fp
    atan2_x.o(i.____softfp_atan2$lsc) refers to atan2_x.o(i.____hardfp_atan2$lsc) for ____hardfp_atan2$lsc
    atan2_x.o(i.__atan2$lsc) refers (Special) to usenofp.o(x$fpl$usenofp) for __I$use$fp
    atan2_x.o(i.__atan2$lsc) refers to atan2_x.o(i.____hardfp_atan2$lsc) for ____hardfp_atan2$lsc
    atan2f.o(i.__hardfp_atan2f) refers (Special) to usenofp.o(x$fpl$usenofp) for __I$use$fp
    atan2f.o(i.__hardfp_atan2f) refers to fpclassifyf.o(i.__ARM_fpclassifyf) for __ARM_fpclassifyf
    atan2f.o(i.__hardfp_atan2f) refers to funder.o(i.__mathlib_flt_underflow) for __mathlib_flt_underflow
    atan2f.o(i.__softfp_atan2f) refers (Special) to usenofp.o(x$fpl$usenofp) for __I$use$fp
    atan2f.o(i.__softfp_atan2f) refers to atan2f.o(i.__hardfp_atan2f) for __hardfp_atan2f
    atan2f.o(i.atan2f) refers (Special) to usenofp.o(x$fpl$usenofp) for __I$use$fp
    atan2f.o(i.atan2f) refers to atan2f.o(i.__hardfp_atan2f) for __hardfp_atan2f
    atan2f_x.o(i.____hardfp_atan2f$lsc) refers (Special) to usenofp.o(x$fpl$usenofp) for __I$use$fp
    atan2f_x.o(i.____hardfp_atan2f$lsc) refers to _rserrno.o(.text) for __set_errno
    atan2f_x.o(i.____softfp_atan2f$lsc) refers (Special) to usenofp.o(x$fpl$usenofp) for __I$use$fp
    atan2f_x.o(i.____softfp_atan2f$lsc) refers to atan2f_x.o(i.____hardfp_atan2f$lsc) for ____hardfp_atan2f$lsc
    atan2f_x.o(i.__atan2f$lsc) refers (Special) to usenofp.o(x$fpl$usenofp) for __I$use$fp
    atan2f_x.o(i.__atan2f$lsc) refers to atan2f_x.o(i.____hardfp_atan2f$lsc) for ____hardfp_atan2f$lsc
    cos.o(i.__hardfp_cos) refers (Special) to usenofp.o(x$fpl$usenofp) for __I$use$fp
    cos.o(i.__hardfp_cos) refers to _rserrno.o(.text) for __set_errno
    cos.o(i.__hardfp_cos) refers to ddiv.o(x$fpl$ddiv) for __aeabi_ddiv
    cos.o(i.__hardfp_cos) refers to daddsub_clz.o(x$fpl$dadd) for __aeabi_dadd
    cos.o(i.__hardfp_cos) refers to rred.o(i.__ieee754_rem_pio2) for __ieee754_rem_pio2
    cos.o(i.__hardfp_cos) refers to sin_i.o(i.__kernel_sin) for __kernel_sin
    cos.o(i.__hardfp_cos) refers to cos_i.o(i.__kernel_cos) for __kernel_cos
    cos.o(i.__hardfp_cos) refers to basic.o(x$fpl$basic) for __aeabi_dneg
    cos.o(i.__softfp_cos) refers (Special) to usenofp.o(x$fpl$usenofp) for __I$use$fp
    cos.o(i.__softfp_cos) refers to cos.o(i.__hardfp_cos) for __hardfp_cos
    cos.o(i.cos) refers (Special) to usenofp.o(x$fpl$usenofp) for __I$use$fp
    cos.o(i.cos) refers to cos.o(i.__hardfp_cos) for __hardfp_cos
    cos_x.o(i.____hardfp_cos$lsc) refers (Special) to usenofp.o(x$fpl$usenofp) for __I$use$fp
    cos_x.o(i.____hardfp_cos$lsc) refers to _rserrno.o(.text) for __set_errno
    cos_x.o(i.____hardfp_cos$lsc) refers to daddsub_clz.o(x$fpl$dadd) for __aeabi_dadd
    cos_x.o(i.____hardfp_cos$lsc) refers to rred.o(i.__ieee754_rem_pio2) for __ieee754_rem_pio2
    cos_x.o(i.____hardfp_cos$lsc) refers to sin_i.o(i.__kernel_sin) for __kernel_sin
    cos_x.o(i.____hardfp_cos$lsc) refers to cos_i.o(i.__kernel_cos) for __kernel_cos
    cos_x.o(i.____hardfp_cos$lsc) refers to basic.o(x$fpl$basic) for __aeabi_dneg
    cos_x.o(i.____softfp_cos$lsc) refers (Special) to usenofp.o(x$fpl$usenofp) for __I$use$fp
    cos_x.o(i.____softfp_cos$lsc) refers to cos_x.o(i.____hardfp_cos$lsc) for ____hardfp_cos$lsc
    cos_x.o(i.__cos$lsc) refers (Special) to usenofp.o(x$fpl$usenofp) for __I$use$fp
    cos_x.o(i.__cos$lsc) refers to cos_x.o(i.____hardfp_cos$lsc) for ____hardfp_cos$lsc
    sin.o(i.__hardfp_sin) refers (Special) to usenofp.o(x$fpl$usenofp) for __I$use$fp
    sin.o(i.__hardfp_sin) refers to _rserrno.o(.text) for __set_errno
    sin.o(i.__hardfp_sin) refers to ddiv.o(x$fpl$ddiv) for __aeabi_ddiv
    sin.o(i.__hardfp_sin) refers to daddsub_clz.o(x$fpl$dadd) for __aeabi_dadd
    sin.o(i.__hardfp_sin) refers to rred.o(i.__ieee754_rem_pio2) for __ieee754_rem_pio2
    sin.o(i.__hardfp_sin) refers to cos_i.o(i.__kernel_cos) for __kernel_cos
    sin.o(i.__hardfp_sin) refers to basic.o(x$fpl$basic) for __aeabi_dneg
    sin.o(i.__hardfp_sin) refers to sin_i.o(i.__kernel_sin) for __kernel_sin
    sin.o(i.__softfp_sin) refers (Special) to usenofp.o(x$fpl$usenofp) for __I$use$fp
    sin.o(i.__softfp_sin) refers to sin.o(i.__hardfp_sin) for __hardfp_sin
    sin.o(i.sin) refers (Special) to usenofp.o(x$fpl$usenofp) for __I$use$fp
    sin.o(i.sin) refers to sin.o(i.__hardfp_sin) for __hardfp_sin
    sin_x.o(i.____hardfp_sin$lsc) refers (Special) to usenofp.o(x$fpl$usenofp) for __I$use$fp
    sin_x.o(i.____hardfp_sin$lsc) refers to _rserrno.o(.text) for __set_errno
    sin_x.o(i.____hardfp_sin$lsc) refers to daddsub_clz.o(x$fpl$dadd) for __aeabi_dadd
    sin_x.o(i.____hardfp_sin$lsc) refers to rred.o(i.__ieee754_rem_pio2) for __ieee754_rem_pio2
    sin_x.o(i.____hardfp_sin$lsc) refers to cos_i.o(i.__kernel_cos) for __kernel_cos
    sin_x.o(i.____hardfp_sin$lsc) refers to basic.o(x$fpl$basic) for __aeabi_dneg
    sin_x.o(i.____hardfp_sin$lsc) refers to sin_i.o(i.__kernel_sin) for __kernel_sin
    sin_x.o(i.____softfp_sin$lsc) refers (Special) to usenofp.o(x$fpl$usenofp) for __I$use$fp
    sin_x.o(i.____softfp_sin$lsc) refers to sin_x.o(i.____hardfp_sin$lsc) for ____hardfp_sin$lsc
    sin_x.o(i.__sin$lsc) refers (Special) to usenofp.o(x$fpl$usenofp) for __I$use$fp
    sin_x.o(i.__sin$lsc) refers to sin_x.o(i.____hardfp_sin$lsc) for ____hardfp_sin$lsc
    sqrt.o(i.__hardfp_sqrt) refers (Special) to usenofp.o(x$fpl$usenofp) for __I$use$fp
    sqrt.o(i.__hardfp_sqrt) refers to dsqrt_umaal.o(x$fpl$dsqrt) for _dsqrt
    sqrt.o(i.__hardfp_sqrt) refers to _rserrno.o(.text) for __set_errno
    sqrt.o(i.__softfp_sqrt) refers (Special) to usenofp.o(x$fpl$usenofp) for __I$use$fp
    sqrt.o(i.__softfp_sqrt) refers to dsqrt_umaal.o(x$fpl$dsqrt) for _dsqrt
    sqrt.o(i.__softfp_sqrt) refers to _rserrno.o(.text) for __set_errno
    sqrt.o(i.sqrt) refers (Special) to usenofp.o(x$fpl$usenofp) for __I$use$fp
    sqrt.o(i.sqrt) refers to dsqrt_umaal.o(x$fpl$dsqrt) for _dsqrt
    sqrt.o(i.sqrt) refers to _rserrno.o(.text) for __set_errno
    sqrt_x.o(i.____hardfp_sqrt$lsc) refers (Special) to usenofp.o(x$fpl$usenofp) for __I$use$fp
    sqrt_x.o(i.____hardfp_sqrt$lsc) refers to dleqf.o(x$fpl$dleqf) for __aeabi_cdcmple
    sqrt_x.o(i.____hardfp_sqrt$lsc) refers to _rserrno.o(.text) for __set_errno
    sqrt_x.o(i.____hardfp_sqrt$lsc) refers to dsqrt_umaal.o(x$fpl$dsqrt) for _dsqrt
    sqrt_x.o(i.____softfp_sqrt$lsc) refers (Special) to usenofp.o(x$fpl$usenofp) for __I$use$fp
    sqrt_x.o(i.____softfp_sqrt$lsc) refers to dleqf.o(x$fpl$dleqf) for __aeabi_cdcmple
    sqrt_x.o(i.____softfp_sqrt$lsc) refers to _rserrno.o(.text) for __set_errno
    sqrt_x.o(i.____softfp_sqrt$lsc) refers to dsqrt_umaal.o(x$fpl$dsqrt) for _dsqrt
    sqrt_x.o(i.__sqrt$lsc) refers (Special) to usenofp.o(x$fpl$usenofp) for __I$use$fp
    sqrt_x.o(i.__sqrt$lsc) refers to dleqf.o(x$fpl$dleqf) for __aeabi_cdcmple
    sqrt_x.o(i.__sqrt$lsc) refers to _rserrno.o(.text) for __set_errno
    sqrt_x.o(i.__sqrt$lsc) refers to dsqrt_umaal.o(x$fpl$dsqrt) for _dsqrt
    rtentry.o(.ARM.Collect$$rtentry$$00000000) refers (Special) to rtentry2.o(.ARM.Collect$$rtentry$$0000000A) for __rt_entry_li
    rtentry.o(.ARM.Collect$$rtentry$$00000000) refers (Special) to rtentry2.o(.ARM.Collect$$rtentry$$0000000D) for __rt_entry_main
    rtentry.o(.ARM.Collect$$rtentry$$00000000) refers (Special) to rtentry2.o(.ARM.Collect$$rtentry$$0000000C) for __rt_entry_postli_1
    rtentry.o(.ARM.Collect$$rtentry$$00000000) refers (Special) to rtentry2.o(.ARM.Collect$$rtentry$$00000009) for __rt_entry_postsh_1
    rtentry.o(.ARM.Collect$$rtentry$$00000000) refers (Special) to rtentry2.o(.ARM.Collect$$rtentry$$00000002) for __rt_entry_presh_1
    rtentry.o(.ARM.Collect$$rtentry$$00000000) refers (Special) to rtentry4.o(.ARM.Collect$$rtentry$$00000004) for __rt_entry_sh
    rt_errno_addr.o(.text) refers to rt_errno_addr.o(.bss) for __aeabi_errno_addr_data
    rt_errno_addr_intlibspace.o(.text) refers to libspace.o(.bss) for __libspace_start
    _rserrno.o(.text) refers to rt_errno_addr_intlibspace.o(.text) for __aeabi_errno_addr
    strtol.o(.text) refers to rt_ctype_table.o(.text) for __rt_ctype_table
    strtol.o(.text) refers to _strtoul.o(.text) for _strtoul
    strtol.o(.text) refers to rt_errno_addr_intlibspace.o(.text) for __aeabi_errno_addr
    dcmpi.o(x$fpl$dcmpinf) refers (Special) to usenofp.o(x$fpl$usenofp) for __I$use$fp
    dnaninf.o(x$fpl$dnaninf) refers (Special) to usenofp.o(x$fpl$usenofp) for __I$use$fp
    dretinf.o(x$fpl$dretinf) refers (Special) to usenofp.o(x$fpl$usenofp) for __I$use$fp
    dsqrt_umaal.o(x$fpl$dsqrt) refers (Special) to usenofp.o(x$fpl$usenofp) for __I$use$fp
    dsqrt_umaal.o(x$fpl$dsqrt) refers to dnaninf.o(x$fpl$dnaninf) for __fpl_dnaninf
    fnaninf.o(x$fpl$fnaninf) refers (Special) to usenofp.o(x$fpl$usenofp) for __I$use$fp
    fretinf.o(x$fpl$fretinf) refers (Special) to usenofp.o(x$fpl$usenofp) for __I$use$fp
    atan.o(i.__hardfp_atan) refers (Special) to usenofp.o(x$fpl$usenofp) for __I$use$fp
    atan.o(i.__hardfp_atan) refers to daddsub_clz.o(x$fpl$dadd) for __aeabi_dadd
    atan.o(i.__hardfp_atan) refers to fpclassify.o(i.__ARM_fpclassify) for __ARM_fpclassify
    atan.o(i.__hardfp_atan) refers to dunder.o(i.__mathlib_dbl_underflow) for __mathlib_dbl_underflow
    atan.o(i.__hardfp_atan) refers to fabs.o(i.fabs) for fabs
    atan.o(i.__hardfp_atan) refers to dmul.o(x$fpl$dmul) for __aeabi_dmul
    atan.o(i.__hardfp_atan) refers to daddsub_clz.o(x$fpl$dsub) for __aeabi_dsub
    atan.o(i.__hardfp_atan) refers to ddiv.o(x$fpl$ddiv) for __aeabi_ddiv
    atan.o(i.__hardfp_atan) refers to poly.o(i.__kernel_poly) for __kernel_poly
    atan.o(i.__hardfp_atan) refers to daddsub_clz.o(x$fpl$drsb) for __aeabi_drsub
    atan.o(i.__hardfp_atan) refers to basic.o(x$fpl$basic) for __aeabi_dneg
    atan.o(i.__hardfp_atan) refers to atan.o(.constdata) for .constdata
    atan.o(i.__softfp_atan) refers (Special) to usenofp.o(x$fpl$usenofp) for __I$use$fp
    atan.o(i.__softfp_atan) refers to atan.o(i.__hardfp_atan) for __hardfp_atan
    atan.o(i.atan) refers (Special) to usenofp.o(x$fpl$usenofp) for __I$use$fp
    atan.o(i.atan) refers to atan.o(i.__hardfp_atan) for __hardfp_atan
    atan.o(.constdata) refers (Special) to usenofp.o(x$fpl$usenofp) for __I$use$fp
    atan_x.o(i.____hardfp_atan$lsc) refers (Special) to usenofp.o(x$fpl$usenofp) for __I$use$fp
    atan_x.o(i.____hardfp_atan$lsc) refers to daddsub_clz.o(x$fpl$dadd) for __aeabi_dadd
    atan_x.o(i.____hardfp_atan$lsc) refers to fabs.o(i.fabs) for fabs
    atan_x.o(i.____hardfp_atan$lsc) refers to dmul.o(x$fpl$dmul) for __aeabi_dmul
    atan_x.o(i.____hardfp_atan$lsc) refers to daddsub_clz.o(x$fpl$dsub) for __aeabi_dsub
    atan_x.o(i.____hardfp_atan$lsc) refers to ddiv.o(x$fpl$ddiv) for __aeabi_ddiv
    atan_x.o(i.____hardfp_atan$lsc) refers to poly.o(i.__kernel_poly) for __kernel_poly
    atan_x.o(i.____hardfp_atan$lsc) refers to daddsub_clz.o(x$fpl$drsb) for __aeabi_drsub
    atan_x.o(i.____hardfp_atan$lsc) refers to basic.o(x$fpl$basic) for __aeabi_dneg
    atan_x.o(i.____hardfp_atan$lsc) refers to atan_x.o(.constdata) for .constdata
    atan_x.o(i.____softfp_atan$lsc) refers (Special) to usenofp.o(x$fpl$usenofp) for __I$use$fp
    atan_x.o(i.____softfp_atan$lsc) refers to atan_x.o(i.____hardfp_atan$lsc) for ____hardfp_atan$lsc
    atan_x.o(i.__atan$lsc) refers (Special) to usenofp.o(x$fpl$usenofp) for __I$use$fp
    atan_x.o(i.__atan$lsc) refers to atan_x.o(i.____hardfp_atan$lsc) for ____hardfp_atan$lsc
    atan_x.o(.constdata) refers (Special) to usenofp.o(x$fpl$usenofp) for __I$use$fp
    cos_i.o(i.__kernel_cos) refers (Special) to usenofp.o(x$fpl$usenofp) for __I$use$fp
    cos_i.o(i.__kernel_cos) refers to dfix.o(x$fpl$dfix) for __aeabi_d2iz
    cos_i.o(i.__kernel_cos) refers to dmul.o(x$fpl$dmul) for __aeabi_dmul
    cos_i.o(i.__kernel_cos) refers to poly.o(i.__kernel_poly) for __kernel_poly
    cos_i.o(i.__kernel_cos) refers to daddsub_clz.o(x$fpl$dsub) for __aeabi_dsub
    cos_i.o(i.__kernel_cos) refers to daddsub_clz.o(x$fpl$drsb) for __aeabi_drsub
    cos_i.o(i.__kernel_cos) refers to cos_i.o(.constdata) for .constdata
    cos_i.o(.constdata) refers (Special) to usenofp.o(x$fpl$usenofp) for __I$use$fp
    dunder.o(i.__mathlib_dbl_underflow) refers to dmul.o(x$fpl$dmul) for __aeabi_dmul
    fabs.o(i.__hardfp_fabs) refers (Special) to usenofp.o(x$fpl$usenofp) for __I$use$fp
    fabs.o(i.__softfp_fabs) refers (Special) to usenofp.o(x$fpl$usenofp) for __I$use$fp
    fabs.o(i.fabs) refers (Special) to usenofp.o(x$fpl$usenofp) for __I$use$fp
    fpclassify.o(i.__ARM_fpclassify) refers (Special) to usenofp.o(x$fpl$usenofp) for __I$use$fp
    fpclassifyf.o(i.__ARM_fpclassifyf) refers (Special) to usenofp.o(x$fpl$usenofp) for __I$use$fp
    poly.o(i.__kernel_poly) refers (Special) to usenofp.o(x$fpl$usenofp) for __I$use$fp
    poly.o(i.__kernel_poly) refers to dmul.o(x$fpl$dmul) for __aeabi_dmul
    poly.o(i.__kernel_poly) refers to daddsub_clz.o(x$fpl$dadd) for __aeabi_dadd
    qnan.o(.constdata) refers (Special) to usenofp.o(x$fpl$usenofp) for __I$use$fp
    rred.o(i.__ieee754_rem_pio2) refers (Special) to usenofp.o(x$fpl$usenofp) for __I$use$fp
    rred.o(i.__ieee754_rem_pio2) refers to daddsub_clz.o(x$fpl$dsub) for __aeabi_dsub
    rred.o(i.__ieee754_rem_pio2) refers to daddsub_clz.o(x$fpl$dadd) for __aeabi_dadd
    rred.o(i.__ieee754_rem_pio2) refers to fabs.o(i.fabs) for fabs
    rred.o(i.__ieee754_rem_pio2) refers to dmul.o(x$fpl$dmul) for __aeabi_dmul
    rred.o(i.__ieee754_rem_pio2) refers to dfix.o(x$fpl$dfix) for __aeabi_d2iz
    rred.o(i.__ieee754_rem_pio2) refers to dflt_clz.o(x$fpl$dflt) for __aeabi_i2d
    rred.o(i.__ieee754_rem_pio2) refers to daddsub_clz.o(x$fpl$drsb) for __aeabi_drsub
    rred.o(i.__ieee754_rem_pio2) refers to basic.o(x$fpl$basic) for __aeabi_dneg
    rred.o(i.__ieee754_rem_pio2) refers to dflt_clz.o(x$fpl$dfltu) for __aeabi_ui2d
    rred.o(i.__ieee754_rem_pio2) refers to rred.o(.constdata) for .constdata
    rred.o(i.__use_accurate_range_reduction) refers (Special) to usenofp.o(x$fpl$usenofp) for __I$use$fp
    rred.o(.constdata) refers (Special) to usenofp.o(x$fpl$usenofp) for __I$use$fp
    sin_i.o(i.__kernel_sin) refers (Special) to usenofp.o(x$fpl$usenofp) for __I$use$fp
    sin_i.o(i.__kernel_sin) refers to fpclassify.o(i.__ARM_fpclassify) for __ARM_fpclassify
    sin_i.o(i.__kernel_sin) refers to dunder.o(i.__mathlib_dbl_underflow) for __mathlib_dbl_underflow
    sin_i.o(i.__kernel_sin) refers to dmul.o(x$fpl$dmul) for __aeabi_dmul
    sin_i.o(i.__kernel_sin) refers to poly.o(i.__kernel_poly) for __kernel_poly
    sin_i.o(i.__kernel_sin) refers to daddsub_clz.o(x$fpl$dsub) for __aeabi_dsub
    sin_i.o(i.__kernel_sin) refers to daddsub_clz.o(x$fpl$drsb) for __aeabi_drsub
    sin_i.o(i.__kernel_sin) refers to daddsub_clz.o(x$fpl$dadd) for __aeabi_dadd
    sin_i.o(i.__kernel_sin) refers to sin_i.o(.constdata) for .constdata
    sin_i.o(.constdata) refers (Special) to usenofp.o(x$fpl$usenofp) for __I$use$fp
    sin_i_x.o(i.____kernel_sin$lsc) refers (Special) to usenofp.o(x$fpl$usenofp) for __I$use$fp
    sin_i_x.o(i.____kernel_sin$lsc) refers to dmul.o(x$fpl$dmul) for __aeabi_dmul
    sin_i_x.o(i.____kernel_sin$lsc) refers to poly.o(i.__kernel_poly) for __kernel_poly
    sin_i_x.o(i.____kernel_sin$lsc) refers to daddsub_clz.o(x$fpl$dsub) for __aeabi_dsub
    sin_i_x.o(i.____kernel_sin$lsc) refers to daddsub_clz.o(x$fpl$drsb) for __aeabi_drsub
    sin_i_x.o(i.____kernel_sin$lsc) refers to daddsub_clz.o(x$fpl$dadd) for __aeabi_dadd
    sin_i_x.o(i.____kernel_sin$lsc) refers to sin_i_x.o(.constdata) for .constdata
    sin_i_x.o(.constdata) refers (Special) to usenofp.o(x$fpl$usenofp) for __I$use$fp
    sqrtf.o(i.__hardfp_sqrtf) refers (Special) to usenofp.o(x$fpl$usenofp) for __I$use$fp
    sqrtf.o(i.__hardfp_sqrtf) refers to _rserrno.o(.text) for __set_errno
    sqrtf.o(i.__softfp_sqrtf) refers (Special) to usenofp.o(x$fpl$usenofp) for __I$use$fp
    sqrtf.o(i.__softfp_sqrtf) refers to _rserrno.o(.text) for __set_errno
    sqrtf.o(i.sqrtf) refers (Special) to usenofp.o(x$fpl$usenofp) for __I$use$fp
    sqrtf.o(i.sqrtf) refers to _rserrno.o(.text) for __set_errno
    sqrtf_x.o(i.____hardfp_sqrtf$lsc) refers (Special) to usenofp.o(x$fpl$usenofp) for __I$use$fp
    sqrtf_x.o(i.____hardfp_sqrtf$lsc) refers to _rserrno.o(.text) for __set_errno
    sqrtf_x.o(i.____softfp_sqrtf$lsc) refers (Special) to usenofp.o(x$fpl$usenofp) for __I$use$fp
    sqrtf_x.o(i.____softfp_sqrtf$lsc) refers to _rserrno.o(.text) for __set_errno
    sqrtf_x.o(i.__sqrtf$lsc) refers (Special) to usenofp.o(x$fpl$usenofp) for __I$use$fp
    sqrtf_x.o(i.__sqrtf$lsc) refers to _rserrno.o(.text) for __set_errno
    libspace.o(.text) refers to libspace.o(.bss) for __libspace_start
    rtentry2.o(.ARM.Collect$$rtentry$$00000008) refers to boardinit2.o(.text) for _platform_post_stackheap_init
    rtentry2.o(.ARM.Collect$$rtentry$$0000000A) refers to libinit.o(.ARM.Collect$$libinit$$00000000) for __rt_lib_init
    rtentry2.o(.ARM.Collect$$rtentry$$0000000B) refers to boardinit3.o(.text) for _platform_post_lib_init
    rtentry2.o(.ARM.Collect$$rtentry$$0000000D) refers to startup.o(.text) for main
    rtentry2.o(.ARM.Collect$$rtentry$$0000000D) refers to exit.o(.text) for exit
    rtentry2.o(.ARM.exidx) refers to rtentry2.o(.ARM.Collect$$rtentry$$00000001) for .ARM.Collect$$rtentry$$00000001
    rtentry2.o(.ARM.exidx) refers to rtentry2.o(.ARM.Collect$$rtentry$$00000008) for .ARM.Collect$$rtentry$$00000008
    rtentry2.o(.ARM.exidx) refers to rtentry2.o(.ARM.Collect$$rtentry$$0000000A) for .ARM.Collect$$rtentry$$0000000A
    rtentry2.o(.ARM.exidx) refers to rtentry2.o(.ARM.Collect$$rtentry$$0000000B) for .ARM.Collect$$rtentry$$0000000B
    rtentry2.o(.ARM.exidx) refers to rtentry2.o(.ARM.Collect$$rtentry$$0000000D) for .ARM.Collect$$rtentry$$0000000D
    rtentry4.o(.ARM.Collect$$rtentry$$00000004) refers to sys_stackheap_outer.o(.text) for __user_setup_stackheap
    rtentry4.o(.ARM.exidx) refers to rtentry4.o(.ARM.Collect$$rtentry$$00000004) for .ARM.Collect$$rtentry$$00000004
    rt_ctype_table.o(.text) refers to rt_locale_intlibspace.o(.text) for __rt_locale
    rt_ctype_table.o(.text) refers to lc_ctype_c.o(locale$$code) for _get_lc_ctype
    aeabi_ldiv0_sigfpe.o(.text) refers to rt_div0.o(.text) for __rt_div0
    _strtoul.o(.text) refers to _chval.o(.text) for _chval
    _strtoul.o(.text) refers to rt_errno_addr_intlibspace.o(.text) for __aeabi_errno_addr
    sys_stackheap_outer.o(.text) refers to libspace.o(.text) for __user_perproc_libspace
    sys_stackheap_outer.o(.text) refers to startup_stm32f4xx.o(.text) for __user_initial_stackheap
    rt_div0.o(.text) refers to defsig_fpe_outer.o(.text) for __rt_SIGFPE
    rt_locale.o(.text) refers to rt_locale.o(.bss) for __rt_locale_data
    rt_locale_intlibspace.o(.text) refers to libspace.o(.bss) for __libspace_start
    lc_ctype_c.o(locale$$data) refers (Special) to libinit2.o(.ARM.Collect$$libinit$$00000010) for __rt_lib_init_lc_ctype_2
    lc_ctype_c.o(locale$$code) refers (Special) to libinit2.o(.ARM.Collect$$libinit$$00000010) for __rt_lib_init_lc_ctype_2
    lc_ctype_c.o(locale$$code) refers to strcmpv7m.o(.text) for strcmp
    lc_ctype_c.o(locale$$code) refers to lc_ctype_c.o(locale$$data) for __lcctype_c_name
    exit.o(.text) refers to rtexit.o(.ARM.Collect$$rtexit$$00000000) for __rt_exit
    libinit.o(.ARM.Collect$$libinit$$00000000) refers (Special) to libinit2.o(.ARM.Collect$$libinit$$0000002C) for __rt_lib_init_alloca_1
    libinit.o(.ARM.Collect$$libinit$$00000000) refers (Special) to libinit2.o(.ARM.Collect$$libinit$$0000002A) for __rt_lib_init_argv_1
    libinit.o(.ARM.Collect$$libinit$$00000000) refers (Special) to libinit2.o(.ARM.Collect$$libinit$$00000019) for __rt_lib_init_atexit_1
    libinit.o(.ARM.Collect$$libinit$$00000000) refers (Special) to libinit2.o(.ARM.Collect$$libinit$$0000001F) for __rt_lib_init_clock_1
    libinit.o(.ARM.Collect$$libinit$$00000000) refers (Special) to libinit2.o(.ARM.Collect$$libinit$$00000030) for __rt_lib_init_cpp_1
    libinit.o(.ARM.Collect$$libinit$$00000000) refers (Special) to libinit2.o(.ARM.Collect$$libinit$$0000002E) for __rt_lib_init_exceptions_1
    libinit.o(.ARM.Collect$$libinit$$00000000) refers (Special) to libinit2.o(.ARM.Collect$$libinit$$00000001) for __rt_lib_init_fp_1
    libinit.o(.ARM.Collect$$libinit$$00000000) refers (Special) to libinit2.o(.ARM.Collect$$libinit$$0000001D) for __rt_lib_init_fp_trap_1
    libinit.o(.ARM.Collect$$libinit$$00000000) refers (Special) to libinit2.o(.ARM.Collect$$libinit$$00000021) for __rt_lib_init_getenv_1
    libinit.o(.ARM.Collect$$libinit$$00000000) refers (Special) to libinit2.o(.ARM.Collect$$libinit$$00000008) for __rt_lib_init_heap_1
    libinit.o(.ARM.Collect$$libinit$$00000000) refers (Special) to libinit2.o(.ARM.Collect$$libinit$$0000000F) for __rt_lib_init_lc_collate_1
    libinit.o(.ARM.Collect$$libinit$$00000000) refers (Special) to libinit2.o(.ARM.Collect$$libinit$$00000011) for __rt_lib_init_lc_ctype_1
    libinit.o(.ARM.Collect$$libinit$$00000000) refers (Special) to libinit2.o(.ARM.Collect$$libinit$$00000013) for __rt_lib_init_lc_monetary_1
    libinit.o(.ARM.Collect$$libinit$$00000000) refers (Special) to libinit2.o(.ARM.Collect$$libinit$$00000015) for __rt_lib_init_lc_numeric_1
    libinit.o(.ARM.Collect$$libinit$$00000000) refers (Special) to libinit2.o(.ARM.Collect$$libinit$$00000017) for __rt_lib_init_lc_time_1
    libinit.o(.ARM.Collect$$libinit$$00000000) refers (Special) to libinit2.o(.ARM.Collect$$libinit$$0000000C) for __rt_lib_init_rand_1
    libinit.o(.ARM.Collect$$libinit$$00000000) refers (Special) to libinit2.o(.ARM.Collect$$libinit$$00000031) for __rt_lib_init_return
    libinit.o(.ARM.Collect$$libinit$$00000000) refers (Special) to libinit2.o(.ARM.Collect$$libinit$$0000001B) for __rt_lib_init_signal_1
    libinit.o(.ARM.Collect$$libinit$$00000000) refers (Special) to libinit2.o(.ARM.Collect$$libinit$$00000023) for __rt_lib_init_stdio_1
    libinit.o(.ARM.Collect$$libinit$$00000000) refers (Special) to libinit2.o(.ARM.Collect$$libinit$$0000000A) for __rt_lib_init_user_alloc_1
    rtexit.o(.ARM.Collect$$rtexit$$00000000) refers (Special) to rtexit2.o(.ARM.Collect$$rtexit$$00000004) for __rt_exit_exit
    rtexit.o(.ARM.Collect$$rtexit$$00000000) refers (Special) to rtexit2.o(.ARM.Collect$$rtexit$$00000003) for __rt_exit_ls
    rtexit.o(.ARM.Collect$$rtexit$$00000000) refers (Special) to rtexit2.o(.ARM.Collect$$rtexit$$00000002) for __rt_exit_prels_1
    rtexit.o(.ARM.exidx) refers (Special) to rtexit2.o(.ARM.Collect$$rtexit$$00000004) for __rt_exit_exit
    rtexit.o(.ARM.exidx) refers (Special) to rtexit2.o(.ARM.Collect$$rtexit$$00000003) for __rt_exit_ls
    rtexit.o(.ARM.exidx) refers (Special) to rtexit2.o(.ARM.Collect$$rtexit$$00000002) for __rt_exit_prels_1
    rtexit.o(.ARM.exidx) refers to rtexit.o(.ARM.Collect$$rtexit$$00000000) for .ARM.Collect$$rtexit$$00000000
    defsig_fpe_outer.o(.text) refers to defsig_fpe_inner.o(.text) for __rt_SIGFPE_inner
    defsig_fpe_outer.o(.text) refers to defsig_exit.o(.text) for __sig_exit
    defsig_fpe_formal.o(.text) refers to rt_raise.o(.text) for __rt_raise
    libinit2.o(.ARM.Collect$$libinit$$00000001) refers to fpinit.o(x$fpl$fpinit) for _fp_init
    libinit2.o(.ARM.Collect$$libinit$$0000000D) refers (Weak) to rt_locale_intlibspace.o(.text) for __rt_locale
    libinit2.o(.ARM.Collect$$libinit$$0000000E) refers to libinit2.o(.ARM.Collect$$libinit$$0000000D) for .ARM.Collect$$libinit$$0000000D
    libinit2.o(.ARM.Collect$$libinit$$00000010) refers to libinit2.o(.ARM.Collect$$libinit$$0000000D) for .ARM.Collect$$libinit$$0000000D
    libinit2.o(.ARM.Collect$$libinit$$00000010) refers (Weak) to lc_ctype_c.o(locale$$code) for _get_lc_ctype
    libinit2.o(.ARM.Collect$$libinit$$00000012) refers to libinit2.o(.ARM.Collect$$libinit$$0000000D) for .ARM.Collect$$libinit$$0000000D
    libinit2.o(.ARM.Collect$$libinit$$00000014) refers to libinit2.o(.ARM.Collect$$libinit$$0000000D) for .ARM.Collect$$libinit$$0000000D
    libinit2.o(.ARM.Collect$$libinit$$00000016) refers to libinit2.o(.ARM.Collect$$libinit$$0000000D) for .ARM.Collect$$libinit$$0000000D
    libinit2.o(.ARM.Collect$$libinit$$00000024) refers to argv_veneer.o(.emb_text) for __ARM_argv_veneer
    libinit2.o(.ARM.Collect$$libinit$$00000025) refers to argv_veneer.o(.emb_text) for __ARM_argv_veneer
    rtexit2.o(.ARM.Collect$$rtexit$$00000003) refers to libshutdown.o(.ARM.Collect$$libshutdown$$00000000) for __rt_lib_shutdown
    rtexit2.o(.ARM.Collect$$rtexit$$00000004) refers to sys_exit.o(.text) for _sys_exit
    rtexit2.o(.ARM.exidx) refers to rtexit2.o(.ARM.Collect$$rtexit$$00000001) for .ARM.Collect$$rtexit$$00000001
    rtexit2.o(.ARM.exidx) refers to rtexit2.o(.ARM.Collect$$rtexit$$00000003) for .ARM.Collect$$rtexit$$00000003
    rtexit2.o(.ARM.exidx) refers to rtexit2.o(.ARM.Collect$$rtexit$$00000004) for .ARM.Collect$$rtexit$$00000004
    rt_raise.o(.text) refers to __raise.o(.text) for __raise
    rt_raise.o(.text) refers to sys_exit.o(.text) for _sys_exit
    defsig_exit.o(.text) refers to sys_exit.o(.text) for _sys_exit
    defsig_fpe_inner.o(.text) refers to defsig_general.o(.text) for __default_signal_display
    argv_veneer.o(.emb_text) refers to no_argv.o(.text) for __ARM_get_argv
    sys_exit.o(.text) refers (Special) to use_no_semi.o(.text) for __I$use$semihosting
    sys_exit.o(.text) refers (Special) to indicate_semi.o(.text) for __semihosting_library_function
    __raise.o(.text) refers to defsig.o(CL$$defsig) for __default_signal_handler
    defsig_general.o(.text) refers to sys_wrch.o(.text) for _ttywrch
    _get_argv_nomalloc.o(.text) refers (Special) to hrguard.o(.text) for __heap_region$guard
    _get_argv_nomalloc.o(.text) refers to defsig_rtmem_outer.o(.text) for __rt_SIGRTMEM
    _get_argv_nomalloc.o(.text) refers to sys_command.o(.text) for _sys_command_string
    libshutdown.o(.ARM.Collect$$libshutdown$$00000000) refers (Special) to libshutdown2.o(.ARM.Collect$$libshutdown$$00000006) for __rt_lib_shutdown_fp_trap_1
    libshutdown.o(.ARM.Collect$$libshutdown$$00000000) refers (Special) to libshutdown2.o(.ARM.Collect$$libshutdown$$0000000E) for __rt_lib_shutdown_heap_1
    libshutdown.o(.ARM.Collect$$libshutdown$$00000000) refers (Special) to libshutdown2.o(.ARM.Collect$$libshutdown$$0000000F) for __rt_lib_shutdown_return
    libshutdown.o(.ARM.Collect$$libshutdown$$00000000) refers (Special) to libshutdown2.o(.ARM.Collect$$libshutdown$$00000009) for __rt_lib_shutdown_signal_1
    libshutdown.o(.ARM.Collect$$libshutdown$$00000000) refers (Special) to libshutdown2.o(.ARM.Collect$$libshutdown$$00000003) for __rt_lib_shutdown_stdio_1
    libshutdown.o(.ARM.Collect$$libshutdown$$00000000) refers (Special) to libshutdown2.o(.ARM.Collect$$libshutdown$$0000000B) for __rt_lib_shutdown_user_alloc_1
    sys_wrch.o(.text) refers (Special) to use_no_semi.o(.text) for __I$use$semihosting
    sys_wrch.o(.text) refers (Special) to indicate_semi.o(.text) for __semihosting_library_function
    sys_command.o(.text) refers (Special) to use_no_semi.o(.text) for __I$use$semihosting
    sys_command.o(.text) refers (Special) to indicate_semi.o(.text) for __semihosting_library_function
    defsig_rtmem_outer.o(.text) refers to defsig_rtmem_inner.o(.text) for __rt_SIGRTMEM_inner
    defsig_rtmem_outer.o(.text) refers to defsig_exit.o(.text) for __sig_exit
    defsig_rtmem_formal.o(.text) refers to rt_raise.o(.text) for __rt_raise
    defsig.o(CL$$defsig) refers to defsig_fpe_inner.o(.text) for __rt_SIGFPE_inner
    defsig.o(CL$$defsig) refers to defsig_rtmem_inner.o(.text) for __rt_SIGRTMEM_inner
    defsig_abrt_inner.o(.text) refers to defsig_general.o(.text) for __default_signal_display
    defsig_rtred_inner.o(.text) refers to defsig_general.o(.text) for __default_signal_display
    defsig_rtmem_inner.o(.text) refers to defsig_general.o(.text) for __default_signal_display
    defsig_stak_inner.o(.text) refers to defsig_general.o(.text) for __default_signal_display
    defsig_pvfn_inner.o(.text) refers to defsig_general.o(.text) for __default_signal_display
    defsig_cppl_inner.o(.text) refers to defsig_general.o(.text) for __default_signal_display
    defsig_segv_inner.o(.text) refers to defsig_general.o(.text) for __default_signal_display
    defsig_other.o(.text) refers to defsig_general.o(.text) for __default_signal_display


==============================================================================

Removing Unused input sections from the image.

    Removing application.o(.emb_text), (8 bytes).
    Removing startup.o(.emb_text), (8 bytes).
    Removing motor.o(.emb_text), (8 bytes).
    Removing pwm.o(.emb_text), (8 bytes).
    Removing ahrs.o(.emb_text), (8 bytes).
    Removing board.o(.emb_text), (8 bytes).
    Removing hardtimer.o(.emb_text), (8 bytes).
    Removing led.o(.emb_text), (8 bytes).
    Removing serial.o(.emb_text), (8 bytes).
    Removing settings.o(.emb_text), (8 bytes).
    Removing spi2.o(.emb_text), (8 bytes).
    Removing stm32_iic.o(.emb_text), (8 bytes).
    Removing stm32f4xx_it.o(.emb_text), (8 bytes).
    Removing usart.o(.emb_text), (8 bytes).
    Removing inv_mpu.o(.emb_text), (8 bytes).
    Removing inv_mpu_dmp_motion_driver.o(.emb_text), (8 bytes).
    Removing sonar.o(.emb_text), (8 bytes).
    Removing sonar.o(.text), (228 bytes).
    Removing sonar.o(.bss), (656 bytes).
    Removing system_stm32f4xx.o(.emb_text), (8 bytes).
    Removing misc.o(.emb_text), (8 bytes).
    Removing stm32f4xx_adc.o(.emb_text), (8 bytes).
    Removing stm32f4xx_adc.o(.text), (4220 bytes).
    Removing stm32f4xx_can.o(.emb_text), (8 bytes).
    Removing stm32f4xx_can.o(.text), (4404 bytes).
    Removing stm32f4xx_crc.o(.emb_text), (8 bytes).
    Removing stm32f4xx_crc.o(.text), (72 bytes).
    Removing stm32f4xx_cryp.o(.emb_text), (8 bytes).
    Removing stm32f4xx_cryp.o(.text), (1040 bytes).
    Removing stm32f4xx_cryp_aes.o(.emb_text), (8 bytes).
    Removing stm32f4xx_cryp_aes.o(.text), (1524 bytes).
    Removing stm32f4xx_cryp_des.o(.emb_text), (8 bytes).
    Removing stm32f4xx_cryp_des.o(.text), (468 bytes).
    Removing stm32f4xx_cryp_tdes.o(.emb_text), (8 bytes).
    Removing stm32f4xx_cryp_tdes.o(.text), (532 bytes).
    Removing stm32f4xx_dac.o(.emb_text), (8 bytes).
    Removing stm32f4xx_dac.o(.text), (1552 bytes).
    Removing stm32f4xx_dbgmcu.o(.emb_text), (8 bytes).
    Removing stm32f4xx_dbgmcu.o(.text), (288 bytes).
    Removing stm32f4xx_dcmi.o(.emb_text), (8 bytes).
    Removing stm32f4xx_dcmi.o(.text), (916 bytes).
    Removing stm32f4xx_dma.o(.emb_text), (8 bytes).
    Removing stm32f4xx_exti.o(.emb_text), (8 bytes).
    Removing stm32f4xx_exti.o(.text), (780 bytes).
    Removing stm32f4xx_flash.o(.emb_text), (8 bytes).
    Removing stm32f4xx_flash.o(.text), (1944 bytes).
    Removing stm32f4xx_fsmc.o(.emb_text), (8 bytes).
    Removing stm32f4xx_fsmc.o(.text), (3484 bytes).
    Removing stm32f4xx_gpio.o(.emb_text), (8 bytes).
    Removing stm32f4xx_hash.o(.emb_text), (8 bytes).
    Removing stm32f4xx_hash.o(.text), (852 bytes).
    Removing stm32f4xx_hash_md5.o(.emb_text), (8 bytes).
    Removing stm32f4xx_hash_md5.o(.text), (534 bytes).
    Removing stm32f4xx_hash_sha1.o(.emb_text), (8 bytes).
    Removing stm32f4xx_hash_sha1.o(.text), (548 bytes).
    Removing stm32f4xx_i2c.o(.emb_text), (8 bytes).
    Removing stm32f4xx_i2c.o(.text), (3496 bytes).
    Removing stm32f4xx_iwdg.o(.emb_text), (8 bytes).
    Removing stm32f4xx_iwdg.o(.text), (228 bytes).
    Removing stm32f4xx_pwr.o(.emb_text), (8 bytes).
    Removing stm32f4xx_pwr.o(.text), (580 bytes).
    Removing stm32f4xx_rcc.o(.emb_text), (8 bytes).
    Removing stm32f4xx_rng.o(.emb_text), (8 bytes).
    Removing stm32f4xx_rng.o(.text), (364 bytes).
    Removing stm32f4xx_rtc.o(.emb_text), (8 bytes).
    Removing stm32f4xx_rtc.o(.text), (6024 bytes).
    Removing stm32f4xx_sdio.o(.emb_text), (8 bytes).
    Removing stm32f4xx_sdio.o(.text), (1628 bytes).
    Removing stm32f4xx_spi.o(.emb_text), (8 bytes).
    Removing stm32f4xx_syscfg.o(.emb_text), (8 bytes).
    Removing stm32f4xx_syscfg.o(.text), (388 bytes).
    Removing stm32f4xx_tim.o(.emb_text), (8 bytes).
    Removing stm32f4xx_usart.o(.emb_text), (8 bytes).
    Removing stm32f4xx_wwdg.o(.emb_text), (8 bytes).
    Removing stm32f4xx_wwdg.o(.text), (296 bytes).
    Removing backtrace.o(.text), (2 bytes).
    Removing div0.o(.text), (4 bytes).
    Removing showmem.o(.text), (164 bytes).
    Removing showmem.o(.constdata), (18 bytes).
    Removing romfs.o(.constdata), (104 bytes).
    Removing romfs.o(.conststring), (22 bytes).

81 unused section(s) (total 37752 bytes) removed from the image.

==============================================================================

Image Symbol Table

    Local Symbols

    Symbol Name                              Value     Ov Type        Size  Object(Section)

    ../clib/angel/boardlib.s                 0x00000000   Number         0  boardinit1.o ABSOLUTE
    ../clib/angel/boardlib.s                 0x00000000   Number         0  boardshut.o ABSOLUTE
    ../clib/angel/boardlib.s                 0x00000000   Number         0  boardinit2.o ABSOLUTE
    ../clib/angel/boardlib.s                 0x00000000   Number         0  boardinit3.o ABSOLUTE
    ../clib/angel/dczerorl2.s                0x00000000   Number         0  __dczerorl2.o ABSOLUTE
    ../clib/angel/handlers.s                 0x00000000   Number         0  __scatter_zi.o ABSOLUTE
    ../clib/angel/kernel.s                   0x00000000   Number         0  rtentry4.o ABSOLUTE
    ../clib/angel/kernel.s                   0x00000000   Number         0  rtentry.o ABSOLUTE
    ../clib/angel/kernel.s                   0x00000000   Number         0  rtentry2.o ABSOLUTE
    ../clib/angel/kernel.s                   0x00000000   Number         0  rtexit.o ABSOLUTE
    ../clib/angel/kernel.s                   0x00000000   Number         0  rtexit2.o ABSOLUTE
    ../clib/angel/rt.s                       0x00000000   Number         0  rt_ctype_table.o ABSOLUTE
    ../clib/angel/rt.s                       0x00000000   Number         0  aeabi_ldiv0.o ABSOLUTE
    ../clib/angel/rt.s                       0x00000000   Number         0  aeabi_ldiv0_sigfpe.o ABSOLUTE
    ../clib/angel/rt.s                       0x00000000   Number         0  rt_locale_intlibspace.o ABSOLUTE
    ../clib/angel/rt.s                       0x00000000   Number         0  rt_locale.o ABSOLUTE
    ../clib/angel/rt.s                       0x00000000   Number         0  rt_errno_addr.o ABSOLUTE
    ../clib/angel/rt.s                       0x00000000   Number         0  rt_errno_addr_intlibspace.o ABSOLUTE
    ../clib/angel/rt.s                       0x00000000   Number         0  rt_raise.o ABSOLUTE
    ../clib/angel/rt.s                       0x00000000   Number         0  rt_div0.o ABSOLUTE
    ../clib/angel/scatter.s                  0x00000000   Number         0  __scatter.o ABSOLUTE
    ../clib/angel/startup.s                  0x00000000   Number         0  __main.o ABSOLUTE
    ../clib/angel/sys.s                      0x00000000   Number         0  sys_stackheap_outer.o ABSOLUTE
    ../clib/angel/sys.s                      0x00000000   Number         0  indicate_semi.o ABSOLUTE
    ../clib/angel/sys.s                      0x00000000   Number         0  libspace.o ABSOLUTE
    ../clib/angel/sys.s                      0x00000000   Number         0  use_no_semi.o ABSOLUTE
    ../clib/angel/sysapp.c                   0x00000000   Number         0  sys_wrch.o ABSOLUTE
    ../clib/angel/sysapp.c                   0x00000000   Number         0  sys_exit.o ABSOLUTE
    ../clib/angel/sysapp.c                   0x00000000   Number         0  sys_command.o ABSOLUTE
    ../clib/armsys.c                         0x00000000   Number         0  no_argv.o ABSOLUTE
    ../clib/armsys.c                         0x00000000   Number         0  _get_argv_nomalloc.o ABSOLUTE
    ../clib/armsys.c                         0x00000000   Number         0  argv_veneer.o ABSOLUTE
    ../clib/armsys.c                         0x00000000   Number         0  argv_veneer.o ABSOLUTE
    ../clib/fenv.c                           0x00000000   Number         0  _rserrno.o ABSOLUTE
    ../clib/heapalloc.c                      0x00000000   Number         0  hrguard.o ABSOLUTE
    ../clib/heapaux.c                        0x00000000   Number         0  heapauxi.o ABSOLUTE
    ../clib/libinit.s                        0x00000000   Number         0  libshutdown.o ABSOLUTE
    ../clib/libinit.s                        0x00000000   Number         0  libinit2.o ABSOLUTE
    ../clib/libinit.s                        0x00000000   Number         0  libshutdown2.o ABSOLUTE
    ../clib/libinit.s                        0x00000000   Number         0  libinit.o ABSOLUTE
    ../clib/locale.s                         0x00000000   Number         0  lc_ctype_c.o ABSOLUTE
    ../clib/longlong.s                       0x00000000   Number         0  llsdiv.o ABSOLUTE
    ../clib/longlong.s                       0x00000000   Number         0  lludivv7m.o ABSOLUTE
    ../clib/memcpset.s                       0x00000000   Number         0  rt_memclr.o ABSOLUTE
    ../clib/memcpset.s                       0x00000000   Number         0  aeabi_memset.o ABSOLUTE
    ../clib/memcpset.s                       0x00000000   Number         0  strcmpv7m.o ABSOLUTE
    ../clib/memcpset.s                       0x00000000   Number         0  rt_memcpy_w.o ABSOLUTE
    ../clib/memcpset.s                       0x00000000   Number         0  rt_memcpy_v6.o ABSOLUTE
    ../clib/memcpset.s                       0x00000000   Number         0  rt_memclr_w.o ABSOLUTE
    ../clib/memcpset.s                       0x00000000   Number         0  strncpy.o ABSOLUTE
    ../clib/scanf.c                          0x00000000   Number         0  _chval.o ABSOLUTE
    ../clib/scanf.c                          0x00000000   Number         0  atoi.o ABSOLUTE
    ../clib/scanf.c                          0x00000000   Number         0  _strtoul.o ABSOLUTE
    ../clib/scanf.c                          0x00000000   Number         0  strtol.o ABSOLUTE
    ../clib/signal.c                         0x00000000   Number         0  defsig_pvfn_inner.o ABSOLUTE
    ../clib/signal.c                         0x00000000   Number         0  defsig_stak_inner.o ABSOLUTE
    ../clib/signal.c                         0x00000000   Number         0  defsig_general.o ABSOLUTE
    ../clib/signal.c                         0x00000000   Number         0  defsig_fpe_inner.o ABSOLUTE
    ../clib/signal.c                         0x00000000   Number         0  defsig_rtmem_inner.o ABSOLUTE
    ../clib/signal.c                         0x00000000   Number         0  __raise.o ABSOLUTE
    ../clib/signal.c                         0x00000000   Number         0  defsig_exit.o ABSOLUTE
    ../clib/signal.c                         0x00000000   Number         0  defsig_rtred_inner.o ABSOLUTE
    ../clib/signal.c                         0x00000000   Number         0  defsig_abrt_inner.o ABSOLUTE
    ../clib/signal.c                         0x00000000   Number         0  defsig_rtmem_outer.o ABSOLUTE
    ../clib/signal.c                         0x00000000   Number         0  defsig_rtmem_formal.o ABSOLUTE
    ../clib/signal.c                         0x00000000   Number         0  defsig_fpe_formal.o ABSOLUTE
    ../clib/signal.c                         0x00000000   Number         0  defsig_cppl_inner.o ABSOLUTE
    ../clib/signal.c                         0x00000000   Number         0  defsig_other.o ABSOLUTE
    ../clib/signal.c                         0x00000000   Number         0  defsig_fpe_outer.o ABSOLUTE
    ../clib/signal.c                         0x00000000   Number         0  defsig_segv_inner.o ABSOLUTE
    ../clib/signal.s                         0x00000000   Number         0  defsig.o ABSOLUTE
    ../clib/stdlib.c                         0x00000000   Number         0  exit.o ABSOLUTE
    ../clib/string.c                         0x00000000   Number         0  strncmp.o ABSOLUTE
    ../clib/string.c                         0x00000000   Number         0  strrchr.o ABSOLUTE
    ../clib/string.c                         0x00000000   Number         0  memcmp.o ABSOLUTE
    ../clib/string.c                         0x00000000   Number         0  strlen.o ABSOLUTE
    ../clib/time.c                           0x00000000   Number         0  _monlen.o ABSOLUTE
    ../clib/time.c                           0x00000000   Number         0  mktime.o ABSOLUTE
    ../fplib/basic.s                         0x00000000   Number         0  basic.o ABSOLUTE
    ../fplib/d2f.s                           0x00000000   Number         0  d2f.o ABSOLUTE
    ../fplib/daddsub.s                       0x00000000   Number         0  daddsub_clz.o ABSOLUTE
    ../fplib/dcmpi.s                         0x00000000   Number         0  dcmpi.o ABSOLUTE
    ../fplib/ddiv.s                          0x00000000   Number         0  ddiv.o ABSOLUTE
    ../fplib/dfix.s                          0x00000000   Number         0  dfix.o ABSOLUTE
    ../fplib/dfixu.s                         0x00000000   Number         0  dfixu.o ABSOLUTE
    ../fplib/dflt.s                          0x00000000   Number         0  dflt_clz.o ABSOLUTE
    ../fplib/dleqf.s                         0x00000000   Number         0  dleqf.o ABSOLUTE
    ../fplib/dmul.s                          0x00000000   Number         0  dmul.o ABSOLUTE
    ../fplib/dnaninf.s                       0x00000000   Number         0  dnaninf.o ABSOLUTE
    ../fplib/dretinf.s                       0x00000000   Number         0  dretinf.o ABSOLUTE
    ../fplib/drleqf.s                        0x00000000   Number         0  drleqf.o ABSOLUTE
    ../fplib/dsqrt.s                         0x00000000   Number         0  dsqrt_umaal.o ABSOLUTE
    ../fplib/f2d.s                           0x00000000   Number         0  f2d.o ABSOLUTE
    ../fplib/fnaninf.s                       0x00000000   Number         0  fnaninf.o ABSOLUTE
    ../fplib/fpinit.s                        0x00000000   Number         0  fpinit.o ABSOLUTE
    ../fplib/fretinf.s                       0x00000000   Number         0  fretinf.o ABSOLUTE
    ../fplib/usenofp.s                       0x00000000   Number         0  usenofp.o ABSOLUTE
    ../mathlib/asin.c                        0x00000000   Number         0  asin_x.o ABSOLUTE
    ../mathlib/asin.c                        0x00000000   Number         0  asin.o ABSOLUTE
    ../mathlib/asinf.c                       0x00000000   Number         0  asinf_x.o ABSOLUTE
    ../mathlib/asinf.c                       0x00000000   Number         0  asinf.o ABSOLUTE
    ../mathlib/atan.c                        0x00000000   Number         0  atan_x.o ABSOLUTE
    ../mathlib/atan.c                        0x00000000   Number         0  atan.o ABSOLUTE
    ../mathlib/atan2.c                       0x00000000   Number         0  atan2.o ABSOLUTE
    ../mathlib/atan2.c                       0x00000000   Number         0  atan2_x.o ABSOLUTE
    ../mathlib/atan2f.c                      0x00000000   Number         0  atan2f.o ABSOLUTE
    ../mathlib/atan2f.c                      0x00000000   Number         0  atan2f_x.o ABSOLUTE
    ../mathlib/cos.c                         0x00000000   Number         0  cos.o ABSOLUTE
    ../mathlib/cos.c                         0x00000000   Number         0  cos_x.o ABSOLUTE
    ../mathlib/cos_i.c                       0x00000000   Number         0  cos_i.o ABSOLUTE
    ../mathlib/dunder.c                      0x00000000   Number         0  dunder.o ABSOLUTE
    ../mathlib/fabs.c                        0x00000000   Number         0  fabs.o ABSOLUTE
    ../mathlib/fpclassify.c                  0x00000000   Number         0  fpclassify.o ABSOLUTE
    ../mathlib/fpclassifyf.c                 0x00000000   Number         0  fpclassifyf.o ABSOLUTE
    ../mathlib/funder.c                      0x00000000   Number         0  funder.o ABSOLUTE
    ../mathlib/poly.c                        0x00000000   Number         0  poly.o ABSOLUTE
    ../mathlib/qnan.c                        0x00000000   Number         0  qnan.o ABSOLUTE
    ../mathlib/rred.c                        0x00000000   Number         0  rred.o ABSOLUTE
    ../mathlib/sin.c                         0x00000000   Number         0  sin.o ABSOLUTE
    ../mathlib/sin.c                         0x00000000   Number         0  sin_x.o ABSOLUTE
    ../mathlib/sin_i.c                       0x00000000   Number         0  sin_i.o ABSOLUTE
    ../mathlib/sin_i.c                       0x00000000   Number         0  sin_i_x.o ABSOLUTE
    ../mathlib/sqrt.c                        0x00000000   Number         0  sqrt_x.o ABSOLUTE
    ../mathlib/sqrt.c                        0x00000000   Number         0  sqrt.o ABSOLUTE
    ../mathlib/sqrtf.c                       0x00000000   Number         0  sqrtf.o ABSOLUTE
    ../mathlib/sqrtf.c                       0x00000000   Number         0  sqrtf_x.o ABSOLUTE
    ..\..\rtt\rt-thread-2.0.0_beta\components\dfs\filesystems\elmfat\dfs_elm.c 0x00000000   Number         0  dfs_elm.o ABSOLUTE
    ..\..\rtt\rt-thread-2.0.0_beta\components\dfs\filesystems\elmfat\ff.c 0x00000000   Number         0  ff.o ABSOLUTE
    ..\..\rtt\rt-thread-2.0.0_beta\components\dfs\filesystems\romfs\dfs_romfs.c 0x00000000   Number         0  dfs_romfs.o ABSOLUTE
    ..\..\rtt\rt-thread-2.0.0_beta\components\dfs\filesystems\romfs\romfs.c 0x00000000   Number         0  romfs.o ABSOLUTE
    ..\..\rtt\rt-thread-2.0.0_beta\components\dfs\src\dfs.c 0x00000000   Number         0  dfs.o ABSOLUTE
    ..\..\rtt\rt-thread-2.0.0_beta\components\dfs\src\dfs_file.c 0x00000000   Number         0  dfs_file.o ABSOLUTE
    ..\..\rtt\rt-thread-2.0.0_beta\components\dfs\src\dfs_fs.c 0x00000000   Number         0  dfs_fs.o ABSOLUTE
    ..\..\rtt\rt-thread-2.0.0_beta\components\dfs\src\dfs_posix.c 0x00000000   Number         0  dfs_posix.o ABSOLUTE
    ..\..\rtt\rt-thread-2.0.0_beta\components\drivers\i2c\i2c_core.c 0x00000000   Number         0  i2c_core.o ABSOLUTE
    ..\..\rtt\rt-thread-2.0.0_beta\components\drivers\i2c\i2c_dev.c 0x00000000   Number         0  i2c_dev.o ABSOLUTE
    ..\..\rtt\rt-thread-2.0.0_beta\components\drivers\spi\spi_core.c 0x00000000   Number         0  spi_core.o ABSOLUTE
    ..\..\rtt\rt-thread-2.0.0_beta\components\drivers\spi\spi_dev.c 0x00000000   Number         0  spi_dev.o ABSOLUTE
    ..\..\rtt\rt-thread-2.0.0_beta\components\drivers\spi\spi_flash_w25qxx.c 0x00000000   Number         0  spi_flash_w25qxx.o ABSOLUTE
    ..\..\rtt\rt-thread-2.0.0_beta\components\finsh\cmd.c 0x00000000   Number         0  cmd.o ABSOLUTE
    ..\..\rtt\rt-thread-2.0.0_beta\components\finsh\finsh_compiler.c 0x00000000   Number         0  finsh_compiler.o ABSOLUTE
    ..\..\rtt\rt-thread-2.0.0_beta\components\finsh\finsh_error.c 0x00000000   Number         0  finsh_error.o ABSOLUTE
    ..\..\rtt\rt-thread-2.0.0_beta\components\finsh\finsh_heap.c 0x00000000   Number         0  finsh_heap.o ABSOLUTE
    ..\..\rtt\rt-thread-2.0.0_beta\components\finsh\finsh_init.c 0x00000000   Number         0  finsh_init.o ABSOLUTE
    ..\..\rtt\rt-thread-2.0.0_beta\components\finsh\finsh_node.c 0x00000000   Number         0  finsh_node.o ABSOLUTE
    ..\..\rtt\rt-thread-2.0.0_beta\components\finsh\finsh_ops.c 0x00000000   Number         0  finsh_ops.o ABSOLUTE
    ..\..\rtt\rt-thread-2.0.0_beta\components\finsh\finsh_parser.c 0x00000000   Number         0  finsh_parser.o ABSOLUTE
    ..\..\rtt\rt-thread-2.0.0_beta\components\finsh\finsh_token.c 0x00000000   Number         0  finsh_token.o ABSOLUTE
    ..\..\rtt\rt-thread-2.0.0_beta\components\finsh\finsh_var.c 0x00000000   Number         0  finsh_var.o ABSOLUTE
    ..\..\rtt\rt-thread-2.0.0_beta\components\finsh\finsh_vm.c 0x00000000   Number         0  finsh_vm.o ABSOLUTE
    ..\..\rtt\rt-thread-2.0.0_beta\components\finsh\shell.c 0x00000000   Number         0  shell.o ABSOLUTE
    ..\..\rtt\rt-thread-2.0.0_beta\components\finsh\symbol.c 0x00000000   Number         0  symbol.o ABSOLUTE
    ..\..\rtt\rt-thread-2.0.0_beta\components\init\components.c 0x00000000   Number         0  components.o ABSOLUTE
    ..\..\rtt\rt-thread-2.0.0_beta\libcpu\arm\common\backtrace.c 0x00000000   Number         0  backtrace.o ABSOLUTE
    ..\..\rtt\rt-thread-2.0.0_beta\libcpu\arm\common\div0.c 0x00000000   Number         0  div0.o ABSOLUTE
    ..\..\rtt\rt-thread-2.0.0_beta\libcpu\arm\common\showmem.c 0x00000000   Number         0  showmem.o ABSOLUTE
    ..\..\rtt\rt-thread-2.0.0_beta\libcpu\arm\cortex-m4\context_rvds.S 0x00000000   Number         0  context_rvds.o ABSOLUTE
    ..\..\rtt\rt-thread-2.0.0_beta\libcpu\arm\cortex-m4\cpuport.c 0x00000000   Number         0  cpuport.o ABSOLUTE
    ..\..\rtt\rt-thread-2.0.0_beta\src\clock.c 0x00000000   Number         0  clock.o ABSOLUTE
    ..\..\rtt\rt-thread-2.0.0_beta\src\device.c 0x00000000   Number         0  device.o ABSOLUTE
    ..\..\rtt\rt-thread-2.0.0_beta\src\idle.c 0x00000000   Number         0  idle.o ABSOLUTE
    ..\..\rtt\rt-thread-2.0.0_beta\src\ipc.c 0x00000000   Number         0  ipc.o ABSOLUTE
    ..\..\rtt\rt-thread-2.0.0_beta\src\irq.c 0x00000000   Number         0  irq.o ABSOLUTE
    ..\..\rtt\rt-thread-2.0.0_beta\src\kservice.c 0x00000000   Number         0  kservice.o ABSOLUTE
    ..\..\rtt\rt-thread-2.0.0_beta\src\mem.c 0x00000000   Number         0  mem.o ABSOLUTE
    ..\..\rtt\rt-thread-2.0.0_beta\src\mempool.c 0x00000000   Number         0  mempool.o ABSOLUTE
    ..\..\rtt\rt-thread-2.0.0_beta\src\object.c 0x00000000   Number         0  object.o ABSOLUTE
    ..\..\rtt\rt-thread-2.0.0_beta\src\scheduler.c 0x00000000   Number         0  scheduler.o ABSOLUTE
    ..\..\rtt\rt-thread-2.0.0_beta\src\thread.c 0x00000000   Number         0  thread.o ABSOLUTE
    ..\..\rtt\rt-thread-2.0.0_beta\src\timer.c 0x00000000   Number         0  timer.o ABSOLUTE
    Libraries\CMSIS\ST\STM32F4xx\Source\Templates\arm\startup_stm32f4xx.s 0x00000000   Number         0  startup_stm32f4xx.o ABSOLUTE
    Libraries\CMSIS\ST\STM32F4xx\Source\Templates\system_stm32f4xx.c 0x00000000   Number         0  system_stm32f4xx.o ABSOLUTE
    Libraries\STM32F4xx_StdPeriph_Driver\src\misc.c 0x00000000   Number         0  misc.o ABSOLUTE
    Libraries\STM32F4xx_StdPeriph_Driver\src\stm32f4xx_adc.c 0x00000000   Number         0  stm32f4xx_adc.o ABSOLUTE
    Libraries\STM32F4xx_StdPeriph_Driver\src\stm32f4xx_can.c 0x00000000   Number         0  stm32f4xx_can.o ABSOLUTE
    Libraries\STM32F4xx_StdPeriph_Driver\src\stm32f4xx_crc.c 0x00000000   Number         0  stm32f4xx_crc.o ABSOLUTE
    Libraries\STM32F4xx_StdPeriph_Driver\src\stm32f4xx_cryp.c 0x00000000   Number         0  stm32f4xx_cryp.o ABSOLUTE
    Libraries\STM32F4xx_StdPeriph_Driver\src\stm32f4xx_cryp_aes.c 0x00000000   Number         0  stm32f4xx_cryp_aes.o ABSOLUTE
    Libraries\STM32F4xx_StdPeriph_Driver\src\stm32f4xx_cryp_des.c 0x00000000   Number         0  stm32f4xx_cryp_des.o ABSOLUTE
    Libraries\STM32F4xx_StdPeriph_Driver\src\stm32f4xx_cryp_tdes.c 0x00000000   Number         0  stm32f4xx_cryp_tdes.o ABSOLUTE
    Libraries\STM32F4xx_StdPeriph_Driver\src\stm32f4xx_dac.c 0x00000000   Number         0  stm32f4xx_dac.o ABSOLUTE
    Libraries\STM32F4xx_StdPeriph_Driver\src\stm32f4xx_dbgmcu.c 0x00000000   Number         0  stm32f4xx_dbgmcu.o ABSOLUTE
    Libraries\STM32F4xx_StdPeriph_Driver\src\stm32f4xx_dcmi.c 0x00000000   Number         0  stm32f4xx_dcmi.o ABSOLUTE
    Libraries\STM32F4xx_StdPeriph_Driver\src\stm32f4xx_dma.c 0x00000000   Number         0  stm32f4xx_dma.o ABSOLUTE
    Libraries\STM32F4xx_StdPeriph_Driver\src\stm32f4xx_exti.c 0x00000000   Number         0  stm32f4xx_exti.o ABSOLUTE
    Libraries\STM32F4xx_StdPeriph_Driver\src\stm32f4xx_flash.c 0x00000000   Number         0  stm32f4xx_flash.o ABSOLUTE
    Libraries\STM32F4xx_StdPeriph_Driver\src\stm32f4xx_fsmc.c 0x00000000   Number         0  stm32f4xx_fsmc.o ABSOLUTE
    Libraries\STM32F4xx_StdPeriph_Driver\src\stm32f4xx_gpio.c 0x00000000   Number         0  stm32f4xx_gpio.o ABSOLUTE
    Libraries\STM32F4xx_StdPeriph_Driver\src\stm32f4xx_hash.c 0x00000000   Number         0  stm32f4xx_hash.o ABSOLUTE
    Libraries\STM32F4xx_StdPeriph_Driver\src\stm32f4xx_hash_md5.c 0x00000000   Number         0  stm32f4xx_hash_md5.o ABSOLUTE
    Libraries\STM32F4xx_StdPeriph_Driver\src\stm32f4xx_hash_sha1.c 0x00000000   Number         0  stm32f4xx_hash_sha1.o ABSOLUTE
    Libraries\STM32F4xx_StdPeriph_Driver\src\stm32f4xx_i2c.c 0x00000000   Number         0  stm32f4xx_i2c.o ABSOLUTE
    Libraries\STM32F4xx_StdPeriph_Driver\src\stm32f4xx_iwdg.c 0x00000000   Number         0  stm32f4xx_iwdg.o ABSOLUTE
    Libraries\STM32F4xx_StdPeriph_Driver\src\stm32f4xx_pwr.c 0x00000000   Number         0  stm32f4xx_pwr.o ABSOLUTE
    Libraries\STM32F4xx_StdPeriph_Driver\src\stm32f4xx_rcc.c 0x00000000   Number         0  stm32f4xx_rcc.o ABSOLUTE
    Libraries\STM32F4xx_StdPeriph_Driver\src\stm32f4xx_rng.c 0x00000000   Number         0  stm32f4xx_rng.o ABSOLUTE
    Libraries\STM32F4xx_StdPeriph_Driver\src\stm32f4xx_rtc.c 0x00000000   Number         0  stm32f4xx_rtc.o ABSOLUTE
    Libraries\STM32F4xx_StdPeriph_Driver\src\stm32f4xx_sdio.c 0x00000000   Number         0  stm32f4xx_sdio.o ABSOLUTE
    Libraries\STM32F4xx_StdPeriph_Driver\src\stm32f4xx_spi.c 0x00000000   Number         0  stm32f4xx_spi.o ABSOLUTE
    Libraries\STM32F4xx_StdPeriph_Driver\src\stm32f4xx_syscfg.c 0x00000000   Number         0  stm32f4xx_syscfg.o ABSOLUTE
    Libraries\STM32F4xx_StdPeriph_Driver\src\stm32f4xx_tim.c 0x00000000   Number         0  stm32f4xx_tim.o ABSOLUTE
    Libraries\STM32F4xx_StdPeriph_Driver\src\stm32f4xx_usart.c 0x00000000   Number         0  stm32f4xx_usart.o ABSOLUTE
    Libraries\STM32F4xx_StdPeriph_Driver\src\stm32f4xx_wwdg.c 0x00000000   Number         0  stm32f4xx_wwdg.o ABSOLUTE
    Libraries\\CMSIS\\ST\\STM32F4xx\\Source\\Templates\\system_stm32f4xx.c 0x00000000   Number         0  system_stm32f4xx.o ABSOLUTE
    Libraries\\STM32F4xx_StdPeriph_Driver\\src\\misc.c 0x00000000   Number         0  misc.o ABSOLUTE
    Libraries\\STM32F4xx_StdPeriph_Driver\\src\\stm32f4xx_adc.c 0x00000000   Number         0  stm32f4xx_adc.o ABSOLUTE
    Libraries\\STM32F4xx_StdPeriph_Driver\\src\\stm32f4xx_can.c 0x00000000   Number         0  stm32f4xx_can.o ABSOLUTE
    Libraries\\STM32F4xx_StdPeriph_Driver\\src\\stm32f4xx_crc.c 0x00000000   Number         0  stm32f4xx_crc.o ABSOLUTE
    Libraries\\STM32F4xx_StdPeriph_Driver\\src\\stm32f4xx_cryp.c 0x00000000   Number         0  stm32f4xx_cryp.o ABSOLUTE
    Libraries\\STM32F4xx_StdPeriph_Driver\\src\\stm32f4xx_cryp_aes.c 0x00000000   Number         0  stm32f4xx_cryp_aes.o ABSOLUTE
    Libraries\\STM32F4xx_StdPeriph_Driver\\src\\stm32f4xx_cryp_des.c 0x00000000   Number         0  stm32f4xx_cryp_des.o ABSOLUTE
    Libraries\\STM32F4xx_StdPeriph_Driver\\src\\stm32f4xx_cryp_tdes.c 0x00000000   Number         0  stm32f4xx_cryp_tdes.o ABSOLUTE
    Libraries\\STM32F4xx_StdPeriph_Driver\\src\\stm32f4xx_dac.c 0x00000000   Number         0  stm32f4xx_dac.o ABSOLUTE
    Libraries\\STM32F4xx_StdPeriph_Driver\\src\\stm32f4xx_dbgmcu.c 0x00000000   Number         0  stm32f4xx_dbgmcu.o ABSOLUTE
    Libraries\\STM32F4xx_StdPeriph_Driver\\src\\stm32f4xx_dcmi.c 0x00000000   Number         0  stm32f4xx_dcmi.o ABSOLUTE
    Libraries\\STM32F4xx_StdPeriph_Driver\\src\\stm32f4xx_dma.c 0x00000000   Number         0  stm32f4xx_dma.o ABSOLUTE
    Libraries\\STM32F4xx_StdPeriph_Driver\\src\\stm32f4xx_exti.c 0x00000000   Number         0  stm32f4xx_exti.o ABSOLUTE
    Libraries\\STM32F4xx_StdPeriph_Driver\\src\\stm32f4xx_flash.c 0x00000000   Number         0  stm32f4xx_flash.o ABSOLUTE
    Libraries\\STM32F4xx_StdPeriph_Driver\\src\\stm32f4xx_fsmc.c 0x00000000   Number         0  stm32f4xx_fsmc.o ABSOLUTE
    Libraries\\STM32F4xx_StdPeriph_Driver\\src\\stm32f4xx_gpio.c 0x00000000   Number         0  stm32f4xx_gpio.o ABSOLUTE
    Libraries\\STM32F4xx_StdPeriph_Driver\\src\\stm32f4xx_hash.c 0x00000000   Number         0  stm32f4xx_hash.o ABSOLUTE
    Libraries\\STM32F4xx_StdPeriph_Driver\\src\\stm32f4xx_hash_md5.c 0x00000000   Number         0  stm32f4xx_hash_md5.o ABSOLUTE
    Libraries\\STM32F4xx_StdPeriph_Driver\\src\\stm32f4xx_hash_sha1.c 0x00000000   Number         0  stm32f4xx_hash_sha1.o ABSOLUTE
    Libraries\\STM32F4xx_StdPeriph_Driver\\src\\stm32f4xx_i2c.c 0x00000000   Number         0  stm32f4xx_i2c.o ABSOLUTE
    Libraries\\STM32F4xx_StdPeriph_Driver\\src\\stm32f4xx_iwdg.c 0x00000000   Number         0  stm32f4xx_iwdg.o ABSOLUTE
    Libraries\\STM32F4xx_StdPeriph_Driver\\src\\stm32f4xx_pwr.c 0x00000000   Number         0  stm32f4xx_pwr.o ABSOLUTE
    Libraries\\STM32F4xx_StdPeriph_Driver\\src\\stm32f4xx_rcc.c 0x00000000   Number         0  stm32f4xx_rcc.o ABSOLUTE
    Libraries\\STM32F4xx_StdPeriph_Driver\\src\\stm32f4xx_rng.c 0x00000000   Number         0  stm32f4xx_rng.o ABSOLUTE
    Libraries\\STM32F4xx_StdPeriph_Driver\\src\\stm32f4xx_rtc.c 0x00000000   Number         0  stm32f4xx_rtc.o ABSOLUTE
    Libraries\\STM32F4xx_StdPeriph_Driver\\src\\stm32f4xx_sdio.c 0x00000000   Number         0  stm32f4xx_sdio.o ABSOLUTE
    Libraries\\STM32F4xx_StdPeriph_Driver\\src\\stm32f4xx_spi.c 0x00000000   Number         0  stm32f4xx_spi.o ABSOLUTE
    Libraries\\STM32F4xx_StdPeriph_Driver\\src\\stm32f4xx_syscfg.c 0x00000000   Number         0  stm32f4xx_syscfg.o ABSOLUTE
    Libraries\\STM32F4xx_StdPeriph_Driver\\src\\stm32f4xx_tim.c 0x00000000   Number         0  stm32f4xx_tim.o ABSOLUTE
    Libraries\\STM32F4xx_StdPeriph_Driver\\src\\stm32f4xx_usart.c 0x00000000   Number         0  stm32f4xx_usart.o ABSOLUTE
    Libraries\\STM32F4xx_StdPeriph_Driver\\src\\stm32f4xx_wwdg.c 0x00000000   Number         0  stm32f4xx_wwdg.o ABSOLUTE
    applications\\application.c              0x00000000   Number         0  application.o ABSOLUTE
    applications\\startup.c                  0x00000000   Number         0  startup.o ABSOLUTE
    applications\application.c               0x00000000   Number         0  application.o ABSOLUTE
    applications\startup.c                   0x00000000   Number         0  startup.o ABSOLUTE
    dc.s                                     0x00000000   Number         0  dc.o ABSOLUTE
    drivers\Motor.c                          0x00000000   Number         0  motor.o ABSOLUTE
    drivers\PID.c                            0x00000000   Number         0  pid.o ABSOLUTE
    drivers\PWM.c                            0x00000000   Number         0  pwm.o ABSOLUTE
    drivers\\Motor.c                         0x00000000   Number         0  motor.o ABSOLUTE
    drivers\\PWM.c                           0x00000000   Number         0  pwm.o ABSOLUTE
    drivers\\ahrs.c                          0x00000000   Number         0  ahrs.o ABSOLUTE
    drivers\\board.c                         0x00000000   Number         0  board.o ABSOLUTE
    drivers\\eMPL\\inv_mpu.c                 0x00000000   Number         0  inv_mpu.o ABSOLUTE
    drivers\\eMPL\\inv_mpu_dmp_motion_driver.c 0x00000000   Number         0  inv_mpu_dmp_motion_driver.o ABSOLUTE
    drivers\\hardtimer.c                     0x00000000   Number         0  hardtimer.o ABSOLUTE
    drivers\\led.c                           0x00000000   Number         0  led.o ABSOLUTE
    drivers\\serial.c                        0x00000000   Number         0  serial.o ABSOLUTE
    drivers\\settings.c                      0x00000000   Number         0  settings.o ABSOLUTE
    drivers\\sonar.c                         0x00000000   Number         0  sonar.o ABSOLUTE
    drivers\\spi2.c                          0x00000000   Number         0  spi2.o ABSOLUTE
    drivers\\stm32_iic.c                     0x00000000   Number         0  stm32_iic.o ABSOLUTE
    drivers\\stm32f4xx_it.c                  0x00000000   Number         0  stm32f4xx_it.o ABSOLUTE
    drivers\\usart.c                         0x00000000   Number         0  usart.o ABSOLUTE
    drivers\ahrs.c                           0x00000000   Number         0  ahrs.o ABSOLUTE
    drivers\board.c                          0x00000000   Number         0  board.o ABSOLUTE
    drivers\eMPL\inv_mpu.c                   0x00000000   Number         0  inv_mpu.o ABSOLUTE
    drivers\eMPL\inv_mpu_dmp_motion_driver.c 0x00000000   Number         0  inv_mpu_dmp_motion_driver.o ABSOLUTE
    drivers\hardtimer.c                      0x00000000   Number         0  hardtimer.o ABSOLUTE
    drivers\led.c                            0x00000000   Number         0  led.o ABSOLUTE
    drivers\serial.c                         0x00000000   Number         0  serial.o ABSOLUTE
    drivers\settings.c                       0x00000000   Number         0  settings.o ABSOLUTE
    drivers\sonar.c                          0x00000000   Number         0  sonar.o ABSOLUTE
    drivers\spi2.c                           0x00000000   Number         0  spi2.o ABSOLUTE
    drivers\stm32_iic.c                      0x00000000   Number         0  stm32_iic.o ABSOLUTE
    drivers\stm32f4xx_it.c                   0x00000000   Number         0  stm32f4xx_it.o ABSOLUTE
    drivers\usart.c                          0x00000000   Number         0  usart.o ABSOLUTE
    RESET                                    0x08000000   Section      392  startup_stm32f4xx.o(RESET)
    !!!main                                  0x08000188   Section        8  __main.o(!!!main)
    !!!scatter                               0x08000190   Section       52  __scatter.o(!!!scatter)
    !!dczerorl2                              0x080001c4   Section       90  __dczerorl2.o(!!dczerorl2)
    !!handler_zi                             0x08000220   Section       28  __scatter_zi.o(!!handler_zi)
    .ARM.Collect$$libinit$$00000000          0x0800023c   Section        2  libinit.o(.ARM.Collect$$libinit$$00000000)
    .ARM.Collect$$libinit$$00000001          0x0800023e   Section        4  libinit2.o(.ARM.Collect$$libinit$$00000001)
    .ARM.Collect$$libinit$$00000008          0x08000242   Section        0  libinit2.o(.ARM.Collect$$libinit$$00000008)
    .ARM.Collect$$libinit$$0000000A          0x08000242   Section        0  libinit2.o(.ARM.Collect$$libinit$$0000000A)
    .ARM.Collect$$libinit$$0000000C          0x08000242   Section        0  libinit2.o(.ARM.Collect$$libinit$$0000000C)
    .ARM.Collect$$libinit$$0000000D          0x08000242   Section        6  libinit2.o(.ARM.Collect$$libinit$$0000000D)
    .ARM.Collect$$libinit$$0000000F          0x08000248   Section        0  libinit2.o(.ARM.Collect$$libinit$$0000000F)
    .ARM.Collect$$libinit$$00000010          0x08000248   Section       12  libinit2.o(.ARM.Collect$$libinit$$00000010)
    .ARM.Collect$$libinit$$00000011          0x08000254   Section        0  libinit2.o(.ARM.Collect$$libinit$$00000011)
    .ARM.Collect$$libinit$$00000013          0x08000254   Section        0  libinit2.o(.ARM.Collect$$libinit$$00000013)
    .ARM.Collect$$libinit$$00000015          0x08000254   Section        0  libinit2.o(.ARM.Collect$$libinit$$00000015)
    .ARM.Collect$$libinit$$00000017          0x08000254   Section        0  libinit2.o(.ARM.Collect$$libinit$$00000017)
    .ARM.Collect$$libinit$$00000019          0x08000254   Section        0  libinit2.o(.ARM.Collect$$libinit$$00000019)
    .ARM.Collect$$libinit$$0000001B          0x08000254   Section        0  libinit2.o(.ARM.Collect$$libinit$$0000001B)
    .ARM.Collect$$libinit$$0000001D          0x08000254   Section        0  libinit2.o(.ARM.Collect$$libinit$$0000001D)
    .ARM.Collect$$libinit$$0000001F          0x08000254   Section        0  libinit2.o(.ARM.Collect$$libinit$$0000001F)
    .ARM.Collect$$libinit$$00000021          0x08000254   Section        0  libinit2.o(.ARM.Collect$$libinit$$00000021)
    .ARM.Collect$$libinit$$00000023          0x08000254   Section        0  libinit2.o(.ARM.Collect$$libinit$$00000023)
    .ARM.Collect$$libinit$$0000002A          0x08000254   Section        0  libinit2.o(.ARM.Collect$$libinit$$0000002A)
    .ARM.Collect$$libinit$$0000002C          0x08000254   Section        0  libinit2.o(.ARM.Collect$$libinit$$0000002C)
    .ARM.Collect$$libinit$$0000002E          0x08000254   Section        0  libinit2.o(.ARM.Collect$$libinit$$0000002E)
    .ARM.Collect$$libinit$$00000030          0x08000254   Section        0  libinit2.o(.ARM.Collect$$libinit$$00000030)
    .ARM.Collect$$libinit$$00000031          0x08000254   Section        2  libinit2.o(.ARM.Collect$$libinit$$00000031)
    .ARM.Collect$$libshutdown$$00000000      0x08000256   Section        2  libshutdown.o(.ARM.Collect$$libshutdown$$00000000)
    .ARM.Collect$$libshutdown$$00000003      0x08000258   Section        0  libshutdown2.o(.ARM.Collect$$libshutdown$$00000003)
    .ARM.Collect$$libshutdown$$00000006      0x08000258   Section        0  libshutdown2.o(.ARM.Collect$$libshutdown$$00000006)
    .ARM.Collect$$libshutdown$$00000009      0x08000258   Section        0  libshutdown2.o(.ARM.Collect$$libshutdown$$00000009)
    .ARM.Collect$$libshutdown$$0000000B      0x08000258   Section        0  libshutdown2.o(.ARM.Collect$$libshutdown$$0000000B)
    .ARM.Collect$$libshutdown$$0000000E      0x08000258   Section        0  libshutdown2.o(.ARM.Collect$$libshutdown$$0000000E)
    .ARM.Collect$$libshutdown$$0000000F      0x08000258   Section        2  libshutdown2.o(.ARM.Collect$$libshutdown$$0000000F)
    .ARM.Collect$$rtentry$$00000000          0x0800025a   Section        0  rtentry.o(.ARM.Collect$$rtentry$$00000000)
    .ARM.Collect$$rtentry$$00000002          0x0800025a   Section        0  rtentry2.o(.ARM.Collect$$rtentry$$00000002)
    .ARM.Collect$$rtentry$$00000004          0x0800025a   Section        6  rtentry4.o(.ARM.Collect$$rtentry$$00000004)
    .ARM.Collect$$rtentry$$00000009          0x08000260   Section        0  rtentry2.o(.ARM.Collect$$rtentry$$00000009)
    .ARM.Collect$$rtentry$$0000000A          0x08000260   Section        4  rtentry2.o(.ARM.Collect$$rtentry$$0000000A)
    .ARM.Collect$$rtentry$$0000000C          0x08000264   Section        0  rtentry2.o(.ARM.Collect$$rtentry$$0000000C)
    .ARM.Collect$$rtentry$$0000000D          0x08000264   Section        8  rtentry2.o(.ARM.Collect$$rtentry$$0000000D)
    .ARM.Collect$$rtexit$$00000000           0x0800026c   Section        2  rtexit.o(.ARM.Collect$$rtexit$$00000000)
    .ARM.Collect$$rtexit$$00000002           0x0800026e   Section        0  rtexit2.o(.ARM.Collect$$rtexit$$00000002)
    .ARM.Collect$$rtexit$$00000003           0x0800026e   Section        4  rtexit2.o(.ARM.Collect$$rtexit$$00000003)
    .ARM.Collect$$rtexit$$00000004           0x08000272   Section        6  rtexit2.o(.ARM.Collect$$rtexit$$00000004)
    .text                                    0x08000278   Section        0  application.o(.text)
    inv_row_2_scale                          0x08001111   Thumb Code    78  application.o(.text)
    inv_orientation_matrix_to_scalar         0x0800115f   Thumb Code    40  application.o(.text)
    run_self_test                            0x08001187   Thumb Code   150  application.o(.text)
    config_bt                                0x08001755   Thumb Code    40  application.o(.text)
    .text                                    0x08001aec   Section        0  startup.o(.text)
    .text                                    0x08001bb8   Section        0  motor.o(.text)
    .text                                    0x08001ec4   Section        0  pid.o(.text)
    .text                                    0x080023d4   Section        0  pwm.o(.text)
    .text                                    0x08002d80   Section        0  ahrs.o(.text)
    get_fps                                  0x08002e1b   Thumb Code    52  ahrs.o(.text)
    .text                                    0x08004628   Section        0  board.o(.text)
    .text                                    0x080046d8   Section        0  hardtimer.o(.text)
    .text                                    0x08004754   Section        0  led.o(.text)
    .text                                    0x080047f0   Section        0  serial.o(.text)
    rt_serial_init                           0x080047f1   Thumb Code   140  serial.o(.text)
    rt_serial_open                           0x0800487d   Thumb Code     6  serial.o(.text)
    rt_serial_close                          0x08004883   Thumb Code     6  serial.o(.text)
    rt_serial_read                           0x08004889   Thumb Code   158  serial.o(.text)
    rt_serial_enable_dma                     0x08004927   Thumb Code    60  serial.o(.text)
    rt_serial_write                          0x08004963   Thumb Code   282  serial.o(.text)
    rt_serial_control                        0x08004a7d   Thumb Code    92  serial.o(.text)
    .text                                    0x08004e2c   Section        0  settings.o(.text)
    calculate_speed_print                    0x08005ae9   Thumb Code    66  settings.o(.text)
    _block_device_test                       0x08005b2b   Thumb Code  2564  settings.o(.text)
    .text                                    0x080066d8   Section        0  spi2.o(.text)
    .text                                    0x080068b0   Section        0  stm32_iic.o(.text)
    I2C_delay                                0x080068b1   Thumb Code    22  stm32_iic.o(.text)
    I2C_Start                                0x08006901   Thumb Code    86  stm32_iic.o(.text)
    I2C_Stop                                 0x08006957   Thumb Code    52  stm32_iic.o(.text)
    I2C_Ack                                  0x0800698b   Thumb Code    52  stm32_iic.o(.text)
    I2C_NoAck                                0x080069bf   Thumb Code    52  stm32_iic.o(.text)
    I2C_WaitAck                              0x080069f3   Thumb Code    74  stm32_iic.o(.text)
    I2C_SendByte                             0x08006a3d   Thumb Code    84  stm32_iic.o(.text)
    I2C_ReceiveByte                          0x08006a91   Thumb Code    82  stm32_iic.o(.text)
    .text                                    0x08006c5c   Section        0  stm32f4xx_it.o(.text)
    .text                                    0x08006c9c   Section        0  usart.o(.text)
    RCC_Configuration                        0x08006c9d   Thumb Code    44  usart.o(.text)
    GPIO_Configuration                       0x08006cc9   Thumb Code    94  usart.o(.text)
    NVIC_Configuration                       0x08006d27   Thumb Code    74  usart.o(.text)
    DMA_Configuration                        0x08006d71   Thumb Code     2  usart.o(.text)
    .text                                    0x08006e38   Section        0  inv_mpu.o(.text)
    set_int_enable                           0x08006e3b   Thumb Code   138  inv_mpu.o(.text)
    get_accel_prod_shift                     0x080080b5   Thumb Code   190  inv_mpu.o(.text)
    accel_self_test                          0x08008173   Thumb Code   182  inv_mpu.o(.text)
    gyro_self_test                           0x08008229   Thumb Code   290  inv_mpu.o(.text)
    get_st_biases                            0x0800834b   Thumb Code  1164  inv_mpu.o(.text)
    .text                                    0x08008d48   Section        0  inv_mpu_dmp_motion_driver.o(.text)
    decode_gesture                           0x0800981d   Thumb Code    94  inv_mpu_dmp_motion_driver.o(.text)
    .text                                    0x08009ad8   Section        0  system_stm32f4xx.o(.text)
    SetSysClock                              0x08009ad9   Thumb Code   220  system_stm32f4xx.o(.text)
    .text                                    0x08009ce8   Section        0  misc.o(.text)
    .text                                    0x08009ed4   Section        0  stm32f4xx_dma.o(.text)
    .text                                    0x0800b2a0   Section        0  stm32f4xx_gpio.o(.text)
    .text                                    0x0800bbb8   Section        0  stm32f4xx_rcc.o(.text)
    .text                                    0x0800c934   Section        0  stm32f4xx_spi.o(.text)
    .text                                    0x0800d4fc   Section        0  stm32f4xx_tim.o(.text)
    TI4_Config                               0x0800f219   Thumb Code   128  stm32f4xx_tim.o(.text)
    TI3_Config                               0x0800f2fb   Thumb Code    72  stm32f4xx_tim.o(.text)
    TI2_Config                               0x0800f3b9   Thumb Code    80  stm32f4xx_tim.o(.text)
    TI1_Config                               0x0800f48f   Thumb Code    58  stm32f4xx_tim.o(.text)
    .text                                    0x08010790   Section        0  stm32f4xx_usart.o(.text)
    .text                                    0x08011644   Section       64  startup_stm32f4xx.o(.text)
    $v0                                      0x08011644   Number         0  startup_stm32f4xx.o(.text)
    .text                                    0x08011684   Section        0  clock.o(.text)
    .text                                    0x080116e8   Section        0  device.o(.text)
    .text                                    0x08011ad8   Section        0  idle.o(.text)
    rt_thread_idle_entry                     0x08011b8f   Thumb Code    20  idle.o(.text)
    rt_list_isempty                          0x08011bc9   Thumb Code    16  idle.o(.text)
    .text                                    0x08011c40   Section        0  ipc.o(.text)
    rt_list_insert_before                    0x08011c41   Thumb Code    14  ipc.o(.text)
    rt_ipc_list_suspend                      0x08011c4f   Thumb Code   108  ipc.o(.text)
    rt_ipc_list_resume_all                   0x08011cbb   Thumb Code    50  ipc.o(.text)
    rt_list_init                             0x080136e3   Thumb Code     6  ipc.o(.text)
    rt_list_isempty                          0x080136e9   Thumb Code    16  ipc.o(.text)
    rt_ipc_object_init                       0x080136f9   Thumb Code    16  ipc.o(.text)
    rt_ipc_list_resume                       0x08013709   Thumb Code    24  ipc.o(.text)
    .text                                    0x08013738   Section        0  irq.o(.text)
    .text                                    0x08013780   Section        0  kservice.o(.text)
    print_number                             0x08013a2d   Thumb Code   400  kservice.o(.text)
    skip_atoi                                0x08013bbd   Thumb Code    38  kservice.o(.text)
    .text                                    0x08014150   Section        0  mem.o(.text)
    plug_holes                               0x0801415d   Thumb Code   214  mem.o(.text)
    .text                                    0x08014b04   Section        0  mempool.o(.text)
    rt_list_init                             0x08014ebf   Thumb Code     6  mempool.o(.text)
    rt_list_isempty                          0x08014ec5   Thumb Code    16  mempool.o(.text)
    .text                                    0x08014f48   Section        0  object.o(.text)
    rt_list_insert_after                     0x08014f49   Thumb Code    14  object.o(.text)
    rt_list_remove                           0x08014f57   Thumb Code    18  object.o(.text)
    .text                                    0x080152a8   Section        0  scheduler.o(.text)
    _rt_scheduler_stack_check                0x080152af   Thumb Code   100  scheduler.o(.text)
    rt_list_init                             0x08015523   Thumb Code     6  scheduler.o(.text)
    .text                                    0x080155dc   Section        0  thread.o(.text)
    rt_list_insert_after                     0x080155dd   Thumb Code    14  thread.o(.text)
    rt_list_remove                           0x080155eb   Thumb Code    18  thread.o(.text)
    rt_thread_exit                           0x080155fd   Thumb Code    76  thread.o(.text)
    _rt_thread_init                          0x080156af   Thumb Code   158  thread.o(.text)
    .text                                    0x08015c90   Section        0  timer.o(.text)
    rt_list_insert_after                     0x08015c91   Thumb Code    14  timer.o(.text)
    _rt_timer_init                           0x08015ca5   Thumb Code    66  timer.o(.text)
    rt_timer_list_next_timeout               0x08015ce7   Thumb Code    28  timer.o(.text)
    _rt_timer_remove                         0x08015d03   Thumb Code    46  timer.o(.text)
    rt_list_init                             0x08016185   Thumb Code     6  timer.o(.text)
    rt_list_isempty                          0x0801618b   Thumb Code    16  timer.o(.text)
    .text                                    0x080161a0   Section        0  cpuport.o(.text)
    .text                                    0x08016360   Section      272  context_rvds.o(.text)
    $v0                                      0x08016360   Number         0  context_rvds.o(.text)
    .text                                    0x08016470   Section        0  dfs.o(.text)
    .text                                    0x0801686c   Section        0  dfs_fs.o(.text)
    .text                                    0x08016eb0   Section        0  dfs_file.o(.text)
    copyfile                                 0x08017439   Thumb Code   178  dfs_file.o(.text)
    copydir                                  0x080174eb   Thumb Code   250  dfs_file.o(.text)
    _get_path_lastname                       0x080175e5   Thumb Code    26  dfs_file.o(.text)
    .text                                    0x08017878   Section        0  dfs_posix.o(.text)
    .text                                    0x08017dd8   Section        0  dfs_elm.o(.text)
    elm_result_to_dfs                        0x08017dd9   Thumb Code    88  dfs_elm.o(.text)
    get_disk                                 0x08017e31   Thumb Code    32  dfs_elm.o(.text)
    .text                                    0x08018938   Section        0  ff.o(.text)
    mem_cpy                                  0x08018939   Thumb Code    80  ff.o(.text)
    mem_set                                  0x08018989   Thumb Code    20  ff.o(.text)
    mem_cmp                                  0x0801899d   Thumb Code    38  ff.o(.text)
    chk_chr                                  0x080189c3   Thumb Code    20  ff.o(.text)
    lock_fs                                  0x080189d7   Thumb Code    12  ff.o(.text)
    unlock_fs                                0x080189e3   Thumb Code    30  ff.o(.text)
    move_window                              0x08018a01   Thumb Code   114  ff.o(.text)
    sync                                     0x08018a73   Thumb Code   110  ff.o(.text)
    remove_chain                             0x08018d63   Thumb Code   104  ff.o(.text)
    create_chain                             0x08018dcb   Thumb Code   210  ff.o(.text)
    clmt_clust                               0x08018e9d   Thumb Code    56  ff.o(.text)
    dir_sdi                                  0x08018ed5   Thumb Code   220  ff.o(.text)
    dir_next                                 0x08018fb1   Thumb Code   322  ff.o(.text)
    dir_find                                 0x080190f3   Thumb Code    92  ff.o(.text)
    dir_read                                 0x0801914f   Thumb Code    86  ff.o(.text)
    dir_register                             0x080191a5   Thumb Code   110  ff.o(.text)
    dir_remove                               0x08019213   Thumb Code    44  ff.o(.text)
    create_name                              0x0801923f   Thumb Code   328  ff.o(.text)
    get_fileinfo                             0x08019387   Thumb Code   112  ff.o(.text)
    follow_path                              0x080193f7   Thumb Code   146  ff.o(.text)
    check_fs                                 0x08019489   Thumb Code    82  ff.o(.text)
    chk_mounted                              0x080194db   Thumb Code   704  ff.o(.text)
    validate                                 0x0801979b   Thumb Code    54  ff.o(.text)
    .text                                    0x0801ae40   Section        0  dfs_romfs.o(.text)
    .text                                    0x0801b190   Section        0  i2c_core.o(.text)
    .text                                    0x0801b408   Section        0  i2c_dev.o(.text)
    i2c_bus_device_init                      0x0801b409   Thumb Code    40  i2c_dev.o(.text)
    i2c_bus_device_read                      0x0801b431   Thumb Code   120  i2c_dev.o(.text)
    i2c_bus_device_write                     0x0801b4a9   Thumb Code   120  i2c_dev.o(.text)
    i2c_bus_device_control                   0x0801b521   Thumb Code   134  i2c_dev.o(.text)
    .text                                    0x0801b6a4   Section        0  spi_core.o(.text)
    .text                                    0x0801be10   Section        0  spi_dev.o(.text)
    _spi_bus_device_init                     0x0801be11   Thumb Code    40  spi_dev.o(.text)
    _spi_bus_device_read                     0x0801be39   Thumb Code    92  spi_dev.o(.text)
    _spi_bus_device_write                    0x0801be95   Thumb Code    92  spi_dev.o(.text)
    _spi_bus_device_control                  0x0801bef1   Thumb Code    58  spi_dev.o(.text)
    _spidev_device_init                      0x0801bf77   Thumb Code    40  spi_dev.o(.text)
    _spidev_device_read                      0x0801bf9f   Thumb Code    92  spi_dev.o(.text)
    _spidev_device_write                     0x0801bffb   Thumb Code    92  spi_dev.o(.text)
    _spidev_device_control                   0x0801c057   Thumb Code    58  spi_dev.o(.text)
    .text                                    0x0801c1a8   Section        0  spi_flash_w25qxx.o(.text)
    flash_lock                               0x0801c1a9   Thumb Code    18  spi_flash_w25qxx.o(.text)
    flash_unlock                             0x0801c1bb   Thumb Code    14  spi_flash_w25qxx.o(.text)
    w25qxx_read_status                       0x0801c1c9   Thumb Code    32  spi_flash_w25qxx.o(.text)
    w25qxx_wait_busy                         0x0801c1e9   Thumb Code    18  spi_flash_w25qxx.o(.text)
    w25qxx_read                              0x0801c1fb   Thumb Code    70  spi_flash_w25qxx.o(.text)
    w25qxx_flash_init                        0x0801c30d   Thumb Code     6  spi_flash_w25qxx.o(.text)
    w25qxx_flash_open                        0x0801c313   Thumb Code    72  spi_flash_w25qxx.o(.text)
    w25qxx_flash_close                       0x0801c35b   Thumb Code     6  spi_flash_w25qxx.o(.text)
    w25qxx_flash_control                     0x0801c361   Thumb Code    76  spi_flash_w25qxx.o(.text)
    w25qxx_flash_read                        0x0801c3ad   Thumb Code    52  spi_flash_w25qxx.o(.text)
    w25qxx_flash_write                       0x0801c3e1   Thumb Code    70  spi_flash_w25qxx.o(.text)
    rt_spi_send                              0x0801c799   Thumb Code    22  spi_flash_w25qxx.o(.text)
    .text                                    0x0801c7cc   Section        0  shell.o(.text)
    finsh_rx_ind                             0x0801c7cd   Thumb Code    52  shell.o(.text)
    shell_auto_complete                      0x0801c919   Thumb Code    28  shell.o(.text)
    shell_handle_history                     0x0801c9cb   Thumb Code    26  shell.o(.text)
    shell_push_history                       0x0801c9e5   Thumb Code   162  shell.o(.text)
    .text                                    0x0801d1e0   Section        0  cmd.o(.text)
    rt_list_len                              0x0801d1e1   Thumb Code    20  cmd.o(.text)
    _list_thread                             0x0801d20b   Thumb Code   172  cmd.o(.text)
    show_wait_queue                          0x0801d2c1   Thumb Code    40  cmd.o(.text)
    _list_sem                                0x0801d2e9   Thumb Code   108  cmd.o(.text)
    _list_event                              0x0801d361   Thumb Code    96  cmd.o(.text)
    _list_mutex                              0x0801d3cd   Thumb Code    66  cmd.o(.text)
    _list_mailbox                            0x0801d41b   Thumb Code   120  cmd.o(.text)
    _list_msgqueue                           0x0801d49f   Thumb Code   108  cmd.o(.text)
    _list_mempool                            0x0801d517   Thumb Code   102  cmd.o(.text)
    _list_timer                              0x0801d589   Thumb Code  1080  cmd.o(.text)
    _list_device                             0x0801d9cb   Thumb Code    82  cmd.o(.text)
    str_is_prefix                            0x0801daa7   Thumb Code    34  cmd.o(.text)
    str_common                               0x0801dac9   Thumb Code    32  cmd.o(.text)
    rt_list_isempty                          0x0801dc9b   Thumb Code    16  cmd.o(.text)
    .text                                    0x0801dda4   Section        0  finsh_compiler.o(.text)
    finsh_compile                            0x0801dda5   Thumb Code  5712  finsh_compiler.o(.text)
    finsh_type_check                         0x0801f3f5   Thumb Code   350  finsh_compiler.o(.text)
    .text                                    0x0801f5bc   Section        0  finsh_error.o(.text)
    .text                                    0x0801f5e8   Section        0  finsh_heap.o(.text)
    finsh_block_insert                       0x0801f60d   Thumb Code    62  finsh_heap.o(.text)
    finsh_block_remove                       0x0801f64b   Thumb Code    46  finsh_heap.o(.text)
    finsh_block_split                        0x0801f679   Thumb Code    24  finsh_heap.o(.text)
    finsh_block_merge                        0x0801f691   Thumb Code   124  finsh_heap.o(.text)
    finsh_heap_gc                            0x0801f72f   Thumb Code    78  finsh_heap.o(.text)
    .text                                    0x0801f7f8   Section        0  finsh_init.o(.text)
    .text                                    0x0801f850   Section        0  finsh_node.o(.text)
    .text                                    0x0801f9d4   Section        0  finsh_ops.o(.text)
    .text                                    0x080204b0   Section        0  finsh_parser.o(.text)
    make_sys_node                            0x080204b1   Thumb Code    40  finsh_parser.o(.text)
    proc_param_list                          0x080204d9   Thumb Code    76  finsh_parser.o(.text)
    proc_expr                                0x08020525   Thumb Code    12  finsh_parser.o(.text)
    proc_identifier                          0x08020531   Thumb Code    44  finsh_parser.o(.text)
    proc_primary_expr                        0x0802055d   Thumb Code   158  finsh_parser.o(.text)
    proc_postfix_expr                        0x080205fb   Thumb Code   162  finsh_parser.o(.text)
    proc_unary_expr                          0x0802069d   Thumb Code   190  finsh_parser.o(.text)
    proc_type                                0x0802075b   Thumb Code   250  finsh_parser.o(.text)
    proc_cast_expr                           0x08020855   Thumb Code    78  finsh_parser.o(.text)
    proc_multiplicative_expr                 0x080208a3   Thumb Code   138  finsh_parser.o(.text)
    proc_additive_expr                       0x0802092d   Thumb Code   114  finsh_parser.o(.text)
    proc_shift_expr                          0x0802099f   Thumb Code   116  finsh_parser.o(.text)
    proc_and_expr                            0x08020a13   Thumb Code    76  finsh_parser.o(.text)
    proc_exclusive_or_expr                   0x08020a5f   Thumb Code    76  finsh_parser.o(.text)
    proc_inclusive_or_expr                   0x08020aab   Thumb Code    76  finsh_parser.o(.text)
    proc_assign_expr                         0x08020af7   Thumb Code    56  finsh_parser.o(.text)
    proc_variable_decl                       0x08020b2f   Thumb Code   474  finsh_parser.o(.text)
    proc_expr_statement                      0x08020d09   Thumb Code    56  finsh_parser.o(.text)
    .text                                    0x08020e2c   Section        0  finsh_var.o(.text)
    .text                                    0x08020fc8   Section        0  finsh_vm.o(.text)
    .text                                    0x080210ac   Section        0  finsh_token.o(.text)
    token_prev_char                          0x080210c1   Thumb Code    22  finsh_token.o(.text)
    token_next_char                          0x080210d7   Thumb Code    62  finsh_token.o(.text)
    token_spec_number                        0x08021115   Thumb Code   152  finsh_token.o(.text)
    token_proc_number                        0x080211ad   Thumb Code   288  finsh_token.o(.text)
    token_proc_escape                        0x080212cd   Thumb Code   174  finsh_token.o(.text)
    token_proc_string                        0x0802137b   Thumb Code    80  finsh_token.o(.text)
    token_proc_char                          0x080213cb   Thumb Code   162  finsh_token.o(.text)
    token_match_name                         0x0802146d   Thumb Code    48  finsh_token.o(.text)
    token_trim_space                         0x08021515   Thumb Code    34  finsh_token.o(.text)
    token_run                                0x08021537   Thumb Code   414  finsh_token.o(.text)
    .text                                    0x08021704   Section        0  components.o(.text)
    rti_start                                0x08021705   Thumb Code     4  components.o(.text)
    rti_board_end                            0x08021709   Thumb Code     4  components.o(.text)
    rti_end                                  0x0802170d   Thumb Code     4  components.o(.text)
    .text                                    0x08021744   Section       72  llsdiv.o(.text)
    .text                                    0x0802178c   Section        0  atoi.o(.text)
    .text                                    0x080217a6   Section        0  memcmp.o(.text)
    .text                                    0x080217fe   Section        0  strrchr.o(.text)
    .text                                    0x08021814   Section        0  strlen.o(.text)
    .text                                    0x08021852   Section        0  strncmp.o(.text)
    .text                                    0x080218e8   Section      138  rt_memcpy_v6.o(.text)
    .text                                    0x08021972   Section      100  rt_memcpy_w.o(.text)
    .text                                    0x080219d6   Section       16  aeabi_memset.o(.text)
    .text                                    0x080219e6   Section       68  rt_memclr.o(.text)
    .text                                    0x08021a2a   Section       78  rt_memclr_w.o(.text)
    .text                                    0x08021a78   Section       86  strncpy.o(.text)
    .text                                    0x08021ad0   Section      128  strcmpv7m.o(.text)
    .text                                    0x08021b50   Section        0  mktime.o(.text)
    _tm_carry                                0x08021b51   Thumb Code    54  mktime.o(.text)
    .text                                    0x08021cf4   Section        0  heapauxi.o(.text)
    .text                                    0x08021cfc   Section        8  rt_errno_addr_intlibspace.o(.text)
    .text                                    0x08021d04   Section      238  lludivv7m.o(.text)
    .text                                    0x08021df2   Section        0  _rserrno.o(.text)
    .text                                    0x08021e08   Section        0  strtol.o(.text)
    .text                                    0x08021e78   Section        8  libspace.o(.text)
    .text                                    0x08021e80   Section       16  rt_ctype_table.o(.text)
    .text                                    0x08021e90   Section        0  _strtoul.o(.text)
    .text                                    0x08021f2e   Section       74  sys_stackheap_outer.o(.text)
    .text                                    0x08021f78   Section        8  rt_locale_intlibspace.o(.text)
    .text                                    0x08021f80   Section        0  _chval.o(.text)
    .text                                    0x08021f9c   Section        0  exit.o(.text)
    .text                                    0x08021fa8   Section        0  sys_exit.o(.text)
    .text                                    0x08021fb4   Section        2  use_no_semi.o(.text)
    .text                                    0x08021fb6   Section        0  indicate_semi.o(.text)
    i.__ARM_fpclassify                       0x08021fb6   Section        0  fpclassify.o(i.__ARM_fpclassify)
    i.__ARM_fpclassifyf                      0x08021fe6   Section        0  fpclassifyf.o(i.__ARM_fpclassifyf)
    i.__hardfp_asin                          0x08022010   Section        0  asin.o(i.__hardfp_asin)
    i.__hardfp_asinf                         0x08022380   Section        0  asinf.o(i.__hardfp_asinf)
    i.__hardfp_atan                          0x080224a8   Section        0  atan.o(i.__hardfp_atan)
    i.__hardfp_atan2                         0x08022788   Section        0  atan2.o(i.__hardfp_atan2)
    i.__hardfp_atan2f                        0x08022978   Section        0  atan2f.o(i.__hardfp_atan2f)
    i.__hardfp_cos                           0x08022bc8   Section        0  cos.o(i.__hardfp_cos)
    i.__hardfp_sin                           0x08022ca0   Section        0  sin.o(i.__hardfp_sin)
    i.__hardfp_sqrt                          0x08022d78   Section        0  sqrt.o(i.__hardfp_sqrt)
    i.__ieee754_rem_pio2                     0x08022df8   Section        0  rred.o(i.__ieee754_rem_pio2)
    i.__kernel_cos                           0x08023230   Section        0  cos_i.o(i.__kernel_cos)
    i.__kernel_poly                          0x080233a0   Section        0  poly.o(i.__kernel_poly)
    i.__kernel_sin                           0x08023498   Section        0  sin_i.o(i.__kernel_sin)
    i.__mathlib_dbl_underflow                0x080235c8   Section        0  dunder.o(i.__mathlib_dbl_underflow)
    i.__mathlib_flt_underflow                0x080235e8   Section        0  funder.o(i.__mathlib_flt_underflow)
    i.atan                                   0x080235f8   Section        0  atan.o(i.atan)
    i.fabs                                   0x08023608   Section        0  fabs.o(i.fabs)
    i.sqrt                                   0x08023620   Section        0  sqrt.o(i.sqrt)
    i.sqrtf                                  0x0802368e   Section        0  sqrtf.o(i.sqrtf)
    locale$$code                             0x080236cc   Section       44  lc_ctype_c.o(locale$$code)
    x$fpl$basic                              0x080236f8   Section       24  basic.o(x$fpl$basic)
    $v0                                      0x080236f8   Number         0  basic.o(x$fpl$basic)
    x$fpl$d2f                                0x08023710   Section       98  d2f.o(x$fpl$d2f)
    $v0                                      0x08023710   Number         0  d2f.o(x$fpl$d2f)
    x$fpl$dadd                               0x08023774   Section      336  daddsub_clz.o(x$fpl$dadd)
    $v0                                      0x08023774   Number         0  daddsub_clz.o(x$fpl$dadd)
    _dadd1                                   0x08023785   Thumb Code     0  daddsub_clz.o(x$fpl$dadd)
    x$fpl$dcmpinf                            0x080238c4   Section       24  dcmpi.o(x$fpl$dcmpinf)
    $v0                                      0x080238c4   Number         0  dcmpi.o(x$fpl$dcmpinf)
    x$fpl$ddiv                               0x080238dc   Section      688  ddiv.o(x$fpl$ddiv)
    $v0                                      0x080238dc   Number         0  ddiv.o(x$fpl$ddiv)
    ddiv_entry                               0x080238e3   Thumb Code     0  ddiv.o(x$fpl$ddiv)
    x$fpl$dfix                               0x08023b8c   Section       94  dfix.o(x$fpl$dfix)
    $v0                                      0x08023b8c   Number         0  dfix.o(x$fpl$dfix)
    x$fpl$dfixu                              0x08023bec   Section       90  dfixu.o(x$fpl$dfixu)
    $v0                                      0x08023bec   Number         0  dfixu.o(x$fpl$dfixu)
    x$fpl$dflt                               0x08023c46   Section       46  dflt_clz.o(x$fpl$dflt)
    $v0                                      0x08023c46   Number         0  dflt_clz.o(x$fpl$dflt)
    x$fpl$dfltu                              0x08023c74   Section       38  dflt_clz.o(x$fpl$dfltu)
    $v0                                      0x08023c74   Number         0  dflt_clz.o(x$fpl$dfltu)
    x$fpl$dleqf                              0x08023c9c   Section      120  dleqf.o(x$fpl$dleqf)
    $v0                                      0x08023c9c   Number         0  dleqf.o(x$fpl$dleqf)
    x$fpl$dmul                               0x08023d14   Section      340  dmul.o(x$fpl$dmul)
    $v0                                      0x08023d14   Number         0  dmul.o(x$fpl$dmul)
    x$fpl$dnaninf                            0x08023e68   Section      156  dnaninf.o(x$fpl$dnaninf)
    $v0                                      0x08023e68   Number         0  dnaninf.o(x$fpl$dnaninf)
    x$fpl$dretinf                            0x08023f04   Section       12  dretinf.o(x$fpl$dretinf)
    $v0                                      0x08023f04   Number         0  dretinf.o(x$fpl$dretinf)
    x$fpl$drleqf                             0x08023f10   Section      108  drleqf.o(x$fpl$drleqf)
    $v0                                      0x08023f10   Number         0  drleqf.o(x$fpl$drleqf)
    x$fpl$drsb                               0x08023f7c   Section       22  daddsub_clz.o(x$fpl$drsb)
    $v0                                      0x08023f7c   Number         0  daddsub_clz.o(x$fpl$drsb)
    x$fpl$dsqrt                              0x08023f94   Section      408  dsqrt_umaal.o(x$fpl$dsqrt)
    $v0                                      0x08023f94   Number         0  dsqrt_umaal.o(x$fpl$dsqrt)
    x$fpl$dsub                               0x0802412c   Section      468  daddsub_clz.o(x$fpl$dsub)
    $v0                                      0x0802412c   Number         0  daddsub_clz.o(x$fpl$dsub)
    _dsub1                                   0x0802413d   Thumb Code     0  daddsub_clz.o(x$fpl$dsub)
    x$fpl$f2d                                0x08024300   Section       86  f2d.o(x$fpl$f2d)
    $v0                                      0x08024300   Number         0  f2d.o(x$fpl$f2d)
    x$fpl$fnaninf                            0x08024356   Section      140  fnaninf.o(x$fpl$fnaninf)
    $v0                                      0x08024356   Number         0  fnaninf.o(x$fpl$fnaninf)
    x$fpl$fpinit                             0x080243e2   Section       10  fpinit.o(x$fpl$fpinit)
    $v0                                      0x080243e2   Number         0  fpinit.o(x$fpl$fpinit)
    x$fpl$fretinf                            0x080243ec   Section       10  fretinf.o(x$fpl$fretinf)
    $v0                                      0x080243ec   Number         0  fretinf.o(x$fpl$fretinf)
    .constdata                               0x080243f6   Section       18  application.o(.constdata)
    x$fpl$usenofp                            0x080243f6   Section        0  usenofp.o(x$fpl$usenofp)
    .constdata                               0x08024408   Section       47  ahrs.o(.constdata)
    .constdata                               0x08024437   Section      133  serial.o(.constdata)
    __FUNCTION__                             0x08024437   Data          15  serial.o(.constdata)
    __FUNCTION__                             0x08024446   Data          21  serial.o(.constdata)
    __FUNCTION__                             0x0802445b   Data          16  serial.o(.constdata)
    __FUNCTION__                             0x0802446b   Data          18  serial.o(.constdata)
    __FUNCTION__                             0x0802447d   Data          22  serial.o(.constdata)
    __FUNCTION__                             0x08024493   Data          17  serial.o(.constdata)
    __FUNCTION__                             0x080244a4   Data          24  serial.o(.constdata)
    .constdata                               0x080244bc   Section      316  settings.o(.constdata)
    .constdata                               0x080245f8   Section        8  spi2.o(.constdata)
    spi2_ops                                 0x080245f8   Data           8  spi2.o(.constdata)
    .constdata                               0x08024600   Section       80  inv_mpu.o(.constdata)
    .constdata                               0x08024650   Section     3062  inv_mpu_dmp_motion_driver.o(.constdata)
    dmp_memory                               0x08024650   Data        3062  inv_mpu_dmp_motion_driver.o(.constdata)
    .constdata                               0x08025246   Section       15  sonar.o(.constdata)
    .constdata                               0x08025255   Section      168  device.o(.constdata)
    __FUNCTION__                             0x08025255   Data          21  device.o(.constdata)
    __FUNCTION__                             0x0802526a   Data          15  device.o(.constdata)
    __FUNCTION__                             0x08025279   Data          15  device.o(.constdata)
    __FUNCTION__                             0x08025288   Data          16  device.o(.constdata)
    __FUNCTION__                             0x08025298   Data          15  device.o(.constdata)
    __FUNCTION__                             0x080252a7   Data          16  device.o(.constdata)
    __FUNCTION__                             0x080252b7   Data          18  device.o(.constdata)
    __FUNCTION__                             0x080252c9   Data          26  device.o(.constdata)
    __FUNCTION__                             0x080252e3   Data          26  device.o(.constdata)
    .constdata                               0x080252fd   Section       22  idle.o(.constdata)
    __FUNCTION__                             0x080252fd   Data          22  idle.o(.constdata)
    .constdata                               0x08025313   Section      471  ipc.o(.constdata)
    __FUNCTION__                             0x08025313   Data          12  ipc.o(.constdata)
    __FUNCTION__                             0x0802531f   Data          14  ipc.o(.constdata)
    __FUNCTION__                             0x0802532d   Data          14  ipc.o(.constdata)
    __FUNCTION__                             0x0802533b   Data          14  ipc.o(.constdata)
    __FUNCTION__                             0x08025349   Data          12  ipc.o(.constdata)
    __FUNCTION__                             0x08025355   Data          15  ipc.o(.constdata)
    __FUNCTION__                             0x08025364   Data          14  ipc.o(.constdata)
    __FUNCTION__                             0x08025372   Data          16  ipc.o(.constdata)
    __FUNCTION__                             0x08025382   Data          16  ipc.o(.constdata)
    __FUNCTION__                             0x08025392   Data          16  ipc.o(.constdata)
    __FUNCTION__                             0x080253a2   Data          14  ipc.o(.constdata)
    __FUNCTION__                             0x080253b0   Data          17  ipc.o(.constdata)
    __FUNCTION__                             0x080253c1   Data          14  ipc.o(.constdata)
    __FUNCTION__                             0x080253cf   Data          16  ipc.o(.constdata)
    __FUNCTION__                             0x080253df   Data          16  ipc.o(.constdata)
    __FUNCTION__                             0x080253ef   Data          16  ipc.o(.constdata)
    __FUNCTION__                             0x080253ff   Data          14  ipc.o(.constdata)
    __FUNCTION__                             0x0802540d   Data          14  ipc.o(.constdata)
    __FUNCTION__                             0x0802541b   Data          17  ipc.o(.constdata)
    __FUNCTION__                             0x0802542c   Data          11  ipc.o(.constdata)
    __FUNCTION__                             0x08025437   Data          13  ipc.o(.constdata)
    __FUNCTION__                             0x08025444   Data          13  ipc.o(.constdata)
    __FUNCTION__                             0x08025451   Data          13  ipc.o(.constdata)
    __FUNCTION__                             0x0802545e   Data          16  ipc.o(.constdata)
    __FUNCTION__                             0x0802546e   Data          11  ipc.o(.constdata)
    __FUNCTION__                             0x08025479   Data          14  ipc.o(.constdata)
    __FUNCTION__                             0x08025487   Data          11  ipc.o(.constdata)
    __FUNCTION__                             0x08025492   Data          13  ipc.o(.constdata)
    __FUNCTION__                             0x0802549f   Data          13  ipc.o(.constdata)
    __FUNCTION__                             0x080254ac   Data          13  ipc.o(.constdata)
    __FUNCTION__                             0x080254b9   Data          11  ipc.o(.constdata)
    __FUNCTION__                             0x080254c4   Data          13  ipc.o(.constdata)
    __FUNCTION__                             0x080254d1   Data          11  ipc.o(.constdata)
    __FUNCTION__                             0x080254dc   Data          14  ipc.o(.constdata)
    .constdata                               0x080254ea   Section      290  kservice.o(.constdata)
    small_digits                             0x080255ea   Data          17  kservice.o(.constdata)
    large_digits                             0x080255fb   Data          17  kservice.o(.constdata)
    .constdata                               0x0802560c   Section      109  mem.o(.constdata)
    __FUNCTION__                             0x08025633   Data          11  mem.o(.constdata)
    __FUNCTION__                             0x0802563e   Data          20  mem.o(.constdata)
    __FUNCTION__                             0x08025652   Data          10  mem.o(.constdata)
    __FUNCTION__                             0x0802565c   Data          11  mem.o(.constdata)
    __FUNCTION__                             0x08025667   Data          10  mem.o(.constdata)
    __FUNCTION__                             0x08025671   Data           8  mem.o(.constdata)
    .constdata                               0x08025679   Section       62  mempool.o(.constdata)
    __FUNCTION__                             0x08025679   Data          11  mempool.o(.constdata)
    __FUNCTION__                             0x08025684   Data          13  mempool.o(.constdata)
    __FUNCTION__                             0x08025691   Data          13  mempool.o(.constdata)
    __FUNCTION__                             0x0802569e   Data          13  mempool.o(.constdata)
    __FUNCTION__                             0x080256ab   Data          12  mempool.o(.constdata)
    .constdata                               0x080256b7   Section       94  object.o(.constdata)
    __FUNCTION__                             0x080256b7   Data          17  object.o(.constdata)
    __FUNCTION__                             0x080256c8   Data          19  object.o(.constdata)
    __FUNCTION__                             0x080256db   Data          17  object.o(.constdata)
    __FUNCTION__                             0x080256ec   Data          26  object.o(.constdata)
    __FUNCTION__                             0x08025706   Data          15  object.o(.constdata)
    .constdata                               0x08025715   Section       78  scheduler.o(.constdata)
    __FUNCTION__                             0x08025715   Data          26  scheduler.o(.constdata)
    __FUNCTION__                             0x0802572f   Data          26  scheduler.o(.constdata)
    __FUNCTION__                             0x08025749   Data          26  scheduler.o(.constdata)
    .constdata                               0x08025763   Section      170  thread.o(.constdata)
    __FUNCTION__                             0x08025763   Data          16  thread.o(.constdata)
    __FUNCTION__                             0x08025773   Data          15  thread.o(.constdata)
    __FUNCTION__                             0x08025782   Data          18  thread.o(.constdata)
    __FUNCTION__                             0x08025794   Data          17  thread.o(.constdata)
    __FUNCTION__                             0x080257a5   Data          17  thread.o(.constdata)
    __FUNCTION__                             0x080257b6   Data          16  thread.o(.constdata)
    __FUNCTION__                             0x080257c6   Data          18  thread.o(.constdata)
    __FUNCTION__                             0x080257d8   Data          18  thread.o(.constdata)
    __FUNCTION__                             0x080257ea   Data          17  thread.o(.constdata)
    __FUNCTION__                             0x080257fb   Data          18  thread.o(.constdata)
    .constdata                               0x0802580d   Section       92  timer.o(.constdata)
    __FUNCTION__                             0x0802580d   Data          14  timer.o(.constdata)
    __FUNCTION__                             0x0802581b   Data          16  timer.o(.constdata)
    __FUNCTION__                             0x0802582b   Data          16  timer.o(.constdata)
    __FUNCTION__                             0x0802583b   Data          15  timer.o(.constdata)
    __FUNCTION__                             0x0802584a   Data          14  timer.o(.constdata)
    __FUNCTION__                             0x08025858   Data          17  timer.o(.constdata)
    .constdata                               0x08025869   Section       19  cpuport.o(.constdata)
    __FUNCTION__                             0x08025869   Data          19  cpuport.o(.constdata)
    .constdata                               0x0802587c   Section       35  dfs.o(.constdata)
    __FUNCTION__                             0x0802587c   Data           9  dfs.o(.constdata)
    __FUNCTION__                             0x08025885   Data           7  dfs.o(.constdata)
    __FUNCTION__                             0x0802588c   Data          19  dfs.o(.constdata)
    .constdata                               0x0802589f   Section       92  dfs_fs.o(.constdata)
    __FUNCTION__                             0x080258c8   Data          22  dfs_fs.o(.constdata)
    __FUNCTION__                             0x080258de   Data          29  dfs_fs.o(.constdata)
    .constdata                               0x080258fb   Section       95  dfs_file.o(.constdata)
    .constdata                               0x0802595a   Section       25  dfs_posix.o(.constdata)
    .constdata                               0x08025974   Section      185  dfs_elm.o(.constdata)
    dfs_elm                                  0x08025974   Data          68  dfs_elm.o(.constdata)
    __FUNCTION__                             0x080259b8   Data          16  dfs_elm.o(.constdata)
    __FUNCTION__                             0x080259c8   Data          15  dfs_elm.o(.constdata)
    __FUNCTION__                             0x080259d7   Data          14  dfs_elm.o(.constdata)
    __FUNCTION__                             0x080259e5   Data          13  dfs_elm.o(.constdata)
    __FUNCTION__                             0x080259f2   Data          14  dfs_elm.o(.constdata)
    __FUNCTION__                             0x08025a00   Data          14  dfs_elm.o(.constdata)
    __FUNCTION__                             0x08025a0e   Data          14  dfs_elm.o(.constdata)
    __FUNCTION__                             0x08025a1c   Data          17  dfs_elm.o(.constdata)
    .constdata                               0x08025a2e   Section       44  ff.o(.constdata)
    vst                                      0x08025a2e   Data          22  ff.o(.constdata)
    cst                                      0x08025a44   Data          22  ff.o(.constdata)
    .constdata                               0x08025a5c   Section      102  dfs_romfs.o(.constdata)
    _romfs                                   0x08025a5c   Data          68  dfs_romfs.o(.constdata)
    __FUNCTION__                             0x08025aa0   Data          15  dfs_romfs.o(.constdata)
    __FUNCTION__                             0x08025aaf   Data          19  dfs_romfs.o(.constdata)
    .constdata                               0x08025ac2   Section       19  i2c_core.o(.constdata)
    __FUNCTION__                             0x08025ac2   Data          19  i2c_core.o(.constdata)
    .constdata                               0x08025ad5   Section      114  i2c_dev.o(.constdata)
    __FUNCTION__                             0x08025ad5   Data          20  i2c_dev.o(.constdata)
    __FUNCTION__                             0x08025ae9   Data          20  i2c_dev.o(.constdata)
    __FUNCTION__                             0x08025afd   Data          21  i2c_dev.o(.constdata)
    __FUNCTION__                             0x08025b12   Data          23  i2c_dev.o(.constdata)
    __FUNCTION__                             0x08025b29   Data          30  i2c_dev.o(.constdata)
    .constdata                               0x08025b47   Section      163  spi_core.o(.constdata)
    __FUNCTION__                             0x08025b47   Data          17  spi_core.o(.constdata)
    __FUNCTION__                             0x08025b58   Data          22  spi_core.o(.constdata)
    __FUNCTION__                             0x08025b6e   Data          22  spi_core.o(.constdata)
    __FUNCTION__                             0x08025b84   Data          16  spi_core.o(.constdata)
    __FUNCTION__                             0x08025b94   Data          24  spi_core.o(.constdata)
    __FUNCTION__                             0x08025bac   Data          16  spi_core.o(.constdata)
    __FUNCTION__                             0x08025bbc   Data          19  spi_core.o(.constdata)
    __FUNCTION__                             0x08025bcf   Data          12  spi_core.o(.constdata)
    __FUNCTION__                             0x08025bdb   Data          15  spi_core.o(.constdata)
    .constdata                               0x08025bea   Section      217  spi_dev.o(.constdata)
    __FUNCTION__                             0x08025bea   Data          21  spi_dev.o(.constdata)
    __FUNCTION__                             0x08025bff   Data          21  spi_dev.o(.constdata)
    __FUNCTION__                             0x08025c14   Data          22  spi_dev.o(.constdata)
    __FUNCTION__                             0x08025c2a   Data          24  spi_dev.o(.constdata)
    __FUNCTION__                             0x08025c42   Data          23  spi_dev.o(.constdata)
    __FUNCTION__                             0x08025c59   Data          20  spi_dev.o(.constdata)
    __FUNCTION__                             0x08025c6d   Data          20  spi_dev.o(.constdata)
    __FUNCTION__                             0x08025c81   Data          21  spi_dev.o(.constdata)
    __FUNCTION__                             0x08025c96   Data          23  spi_dev.o(.constdata)
    __FUNCTION__                             0x08025cad   Data          22  spi_dev.o(.constdata)
    .constdata                               0x08025cc3   Section       39  spi_flash_w25qxx.o(.constdata)
    __FUNCTION__                             0x08025cc3   Data          18  spi_flash_w25qxx.o(.constdata)
    __FUNCTION__                             0x08025cd5   Data          21  spi_flash_w25qxx.o(.constdata)
    .constdata                               0x08025cea   Section       96  shell.o(.constdata)
    __FUNCTION__                             0x08025cea   Data          13  shell.o(.constdata)
    __FUNCTION__                             0x08025cf7   Data          17  shell.o(.constdata)
    __FUNCTION__                             0x08025d08   Data          17  shell.o(.constdata)
    __FUNCTION__                             0x08025d19   Data          15  shell.o(.constdata)
    __FUNCTION__                             0x08025d28   Data          15  shell.o(.constdata)
    __FUNCTION__                             0x08025d37   Data          19  shell.o(.constdata)
    .constdata                               0x08025d4c   Section      512  cmd.o(.constdata)
    .constdata                               0x08025f4c   Section      196  finsh_ops.o(.constdata)
    .constdata                               0x08026010   Section       64  finsh_token.o(.constdata)
    finsh_name_table                         0x08026010   Data          64  finsh_token.o(.constdata)
    .constdata                               0x08026050   Section       80  asin.o(.constdata)
    pS                                       0x08026050   Data          48  asin.o(.constdata)
    qS                                       0x08026080   Data          32  asin.o(.constdata)
    .constdata                               0x080260a0   Section       12  _monlen.o(.constdata)
    .constdata                               0x080260b0   Section      152  atan.o(.constdata)
    atanhi                                   0x080260b0   Data          32  atan.o(.constdata)
    atanlo                                   0x080260d0   Data          32  atan.o(.constdata)
    aTodd                                    0x080260f0   Data          40  atan.o(.constdata)
    aTeven                                   0x08026118   Data          48  atan.o(.constdata)
    .constdata                               0x08026148   Section       48  cos_i.o(.constdata)
    C                                        0x08026148   Data          48  cos_i.o(.constdata)
    .constdata                               0x08026178   Section        8  qnan.o(.constdata)
    .constdata                               0x08026180   Section      200  rred.o(.constdata)
    pio2s                                    0x08026180   Data          48  rred.o(.constdata)
    twooverpi                                0x080261b0   Data         152  rred.o(.constdata)
    .constdata                               0x08026248   Section       40  sin_i.o(.constdata)
    S                                        0x08026248   Data          40  sin_i.o(.constdata)
    .conststring                             0x08026270   Section       77  inv_mpu.o(.conststring)
    .conststring                             0x080262c0   Section      237  mem.o(.conststring)
    .conststring                             0x080263b0   Section       72  dfs_elm.o(.conststring)
    .conststring                             0x080263f8   Section        4  dfs_romfs.o(.conststring)
    .conststring                             0x080263fc   Section      413  cmd.o(.conststring)
    .conststring                             0x0802659c   Section      243  finsh_error.o(.conststring)
    .conststring                             0x08026690   Section       62  finsh_token.o(.conststring)
    .rti_fn.0                                0x080266d0   Section        4  components.o(.rti_fn.0)
    .rti_fn.1.post                           0x080266d4   Section        4  components.o(.rti_fn.1.post)
    .rti_fn.3                                0x080266d8   Section        4  dfs.o(.rti_fn.3)
    .rti_fn.3                                0x080266dc   Section        4  i2c_core.o(.rti_fn.3)
    .rti_fn.3                                0x080266e0   Section        4  shell.o(.rti_fn.3)
    .rti_fn.4                                0x080266e4   Section        4  dfs_elm.o(.rti_fn.4)
    .rti_fn.4                                0x080266e8   Section        4  dfs_romfs.o(.rti_fn.4)
    .rti_fn.7                                0x080266ec   Section        4  components.o(.rti_fn.7)
    FSymTab                                  0x080266f0   Section       24  ahrs.o(FSymTab)
    FSymTab                                  0x08026708   Section      120  settings.o(FSymTab)
    FSymTab                                  0x08026780   Section       12  mem.o(FSymTab)
    FSymTab                                  0x0802678c   Section       24  dfs_fs.o(FSymTab)
    FSymTab                                  0x080267a4   Section       48  dfs_file.o(FSymTab)
    FSymTab                                  0x080267d4   Section       12  dfs_posix.o(FSymTab)
    FSymTab                                  0x080267e0   Section      144  cmd.o(FSymTab)
    VSymTab                                  0x08026890   Section       16  application.o(VSymTab)
    VSymTab                                  0x080268a0   Section       16  sonar.o(VSymTab)
    VSymTab                                  0x080268b0   Section       16  cmd.o(VSymTab)
    locale$$data                             0x080268c0   Section      272  lc_ctype_c.o(locale$$data)
    __lcctype_c_name                         0x080268c4   Data           2  lc_ctype_c.o(locale$$data)
    __lcctype_c_start                        0x080268cc   Data           0  lc_ctype_c.o(locale$$data)
    __lcctype_c_end                          0x080269d0   Data           0  lc_ctype_c.o(locale$$data)
    .data                                    0x20000000   Section       65  application.o(.data)
    curq                                     0x20000020   Data          16  application.o(.data)
    gyro_orientation                         0x20000030   Data           9  application.o(.data)
    .data                                    0x20000042   Section       12  motor.o(.data)
    .data                                    0x20000050   Section       36  pwm.o(.data)
    .data                                    0x20000078   Section      128  ahrs.o(.data)
    dt                                       0x20000088   Data           8  ahrs.o(.data)
    .data                                    0x200000f8   Section        4  spi2.o(.data)
    flash_cs                                 0x200000f8   Data           4  spi2.o(.data)
    .data                                    0x200000fc   Section       28  usart.o(.data)
    .data                                    0x20000118   Section       44  inv_mpu.o(.data)
    st                                       0x20000118   Data          44  inv_mpu.o(.data)
    .data                                    0x20000144   Section        6  sonar.o(.data)
    h                                        0x20000148   Data           2  sonar.o(.data)
    .data                                    0x2000014c   Section       20  system_stm32f4xx.o(.data)
    .data                                    0x20000160   Section       16  stm32f4xx_rcc.o(.data)
    APBAHBPrescTable                         0x20000160   Data          16  stm32f4xx_rcc.o(.data)
    .data                                    0x20000170   Section        4  clock.o(.data)
    rt_tick                                  0x20000170   Data           4  clock.o(.data)
    .data                                    0x20000174   Section        4  idle.o(.data)
    rt_thread_idle_hook                      0x20000174   Data           4  idle.o(.data)
    .data                                    0x20000178   Section        1  irq.o(.data)
    .data                                    0x2000017c   Section        8  kservice.o(.data)
    _errno                                   0x2000017c   Data           4  kservice.o(.data)
    _console_device                          0x20000180   Data           4  kservice.o(.data)
    .data                                    0x20000184   Section       32  mem.o(.data)
    rt_malloc_hook                           0x20000184   Data           4  mem.o(.data)
    rt_free_hook                             0x20000188   Data           4  mem.o(.data)
    heap_ptr                                 0x2000018c   Data           4  mem.o(.data)
    heap_end                                 0x20000190   Data           4  mem.o(.data)
    lfree                                    0x20000194   Data           4  mem.o(.data)
    mem_size_aligned                         0x20000198   Data           4  mem.o(.data)
    used_mem                                 0x2000019c   Data           4  mem.o(.data)
    max_mem                                  0x200001a0   Data           4  mem.o(.data)
    .data                                    0x200001a4   Section        8  mempool.o(.data)
    rt_mp_alloc_hook                         0x200001a4   Data           4  mempool.o(.data)
    rt_mp_free_hook                          0x200001a8   Data           4  mempool.o(.data)
    .data                                    0x200001ac   Section      164  object.o(.data)
    rt_object_attach_hook                    0x2000023c   Data           4  object.o(.data)
    rt_object_detach_hook                    0x20000240   Data           4  object.o(.data)
    .data                                    0x20000250   Section       28  scheduler.o(.data)
    rt_scheduler_lock_nest                   0x20000250   Data           2  scheduler.o(.data)
    rt_scheduler_hook                        0x20000268   Data           4  scheduler.o(.data)
    .data                                    0x2000026c   Section       16  timer.o(.data)
    rt_timer_list                            0x2000026c   Data           8  timer.o(.data)
    rt_timer_timeout_hook                    0x20000274   Data           4  timer.o(.data)
    random_nr                                0x20000278   Data           4  timer.o(.data)
    .data                                    0x2000027c   Section       16  cpuport.o(.data)
    rt_exception_hook                        0x20000288   Data           4  cpuport.o(.data)
    .data                                    0x2000028c   Section        8  dfs_elm.o(.data)
    disk                                     0x2000028c   Data           8  dfs_elm.o(.data)
    .data                                    0x20000294   Section       10  ff.o(.data)
    FatFs                                    0x20000294   Data           8  ff.o(.data)
    Fsid                                     0x2000029c   Data           2  ff.o(.data)
    .data                                    0x200002a0   Section        4  shell.o(.data)
    .data                                    0x200002a4   Section       16  symbol.o(.data)
    .data                                    0x200002b4   Section        4  cmd.o(.data)
    dummy                                    0x200002b4   Data           4  cmd.o(.data)
    .data                                    0x200002b8   Section        8  finsh_compiler.o(.data)
    .data                                    0x200002c0   Section       64  finsh_error.o(.data)
    finsh_error_string_table                 0x200002c4   Data          60  finsh_error.o(.data)
    .data                                    0x20000300   Section        8  finsh_heap.o(.data)
    free_list                                0x20000300   Data           4  finsh_heap.o(.data)
    allocate_list                            0x20000304   Data           4  finsh_heap.o(.data)
    .data                                    0x20000308   Section        4  finsh_var.o(.data)
    .data                                    0x2000030c   Section       12  finsh_vm.o(.data)
    .bss                                     0x20000318   Section     3688  application.o(.bss)
    led_stack                                0x20000318   Data         256  application.o(.bss)
    led_thread                               0x20000418   Data         128  application.o(.bss)
    control_stack                            0x20000498   Data         512  application.o(.bss)
    control_thread                           0x20000698   Data         128  application.o(.bss)
    ahrs_stack                               0x20000718   Data         768  application.o(.bss)
    ahrs_thread                              0x20000a18   Data         128  application.o(.bss)
    ahrs_event                               0x20000a98   Data          32  application.o(.bss)
    correct_stack                            0x20000ab8   Data         768  application.o(.bss)
    correct_thread                           0x20000db8   Data         128  application.o(.bss)
    .bss                                     0x20001180   Section       16  pwm.o(.bss)
    .bss                                     0x20001190   Section     3184  ahrs.o(.bss)
    .bss                                     0x20001e00   Section      176  settings.o(.bss)
    .bss                                     0x20001eb0   Section      184  spi2.o(.bss)
    .bss                                     0x20001f68   Section      420  usart.o(.bss)
    .bss                                     0x2000210c   Section       16  inv_mpu_dmp_motion_driver.o(.bss)
    dmp                                      0x2000210c   Data          16  inv_mpu_dmp_motion_driver.o(.bss)
    .bss                                     0x20002120   Section     1152  idle.o(.bss)
    idle                                     0x20002120   Data         128  idle.o(.bss)
    rt_thread_stack                          0x200021a0   Data        1024  idle.o(.bss)
    .bss                                     0x200025a0   Section      128  kservice.o(.bss)
    rt_log_buf                               0x200025a0   Data         128  kservice.o(.bss)
    .bss                                     0x20002620   Section       32  mem.o(.bss)
    heap_sem                                 0x20002620   Data          32  mem.o(.bss)
    .bss                                     0x20002640   Section      256  scheduler.o(.bss)
    .bss                                     0x20002740   Section      212  dfs.o(.bss)
    fslock                                   0x20002770   Data          36  dfs.o(.bss)
    .bss                                     0x20002814   Section      292  dfs_file.o(.bss)
    fd                                       0x20002814   Data          32  dfs_file.o(.bss)
    dirent                                   0x20002834   Data         260  dfs_file.o(.bss)
    .bss                                     0x20002938   Section       36  i2c_core.o(.bss)
    i2c_core_lock                            0x20002938   Data          36  i2c_core.o(.bss)
    .bss                                     0x2000295c   Section      116  spi_flash_w25qxx.o(.bss)
    spi_flash_device                         0x2000295c   Data         116  spi_flash_w25qxx.o(.bss)
    .bss                                     0x200029d0   Section     2176  shell.o(.bss)
    finsh_thread                             0x200029d0   Data         128  shell.o(.bss)
    finsh_thread_stack                       0x20002a50   Data        2048  shell.o(.bss)
    .bss                                     0x20003250   Section      128  finsh_heap.o(.bss)
    .bss                                     0x200032d0   Section      320  finsh_node.o(.bss)
    .bss                                     0x20003410   Section      192  finsh_var.o(.bss)
    .bss                                     0x200034d0   Section      384  finsh_vm.o(.bss)
    .bss                                     0x20003650   Section       96  libspace.o(.bss)
    HEAP                                     0x200036b0   Section      512  startup_stm32f4xx.o(HEAP)
    Heap_Mem                                 0x200036b0   Data         512  startup_stm32f4xx.o(HEAP)
    STACK                                    0x200038b0   Section     1024  startup_stm32f4xx.o(STACK)
    Stack_Mem                                0x200038b0   Data        1024  startup_stm32f4xx.o(STACK)
    __initial_sp                             0x20003cb0   Data           0  startup_stm32f4xx.o(STACK)

    Global Symbols

    Symbol Name                              Value     Ov Type        Size  Object(Section)

    BuildAttributes$$THM_ISAv4$E$P$D$K$B$S$7EM$VFPi3$EXTD16$VFPS$VFMA$PE$A:L22UL41UL21$X:L11$S22US41US21$IEEE1$IW$USESV6$~STKCKD$USESV7$~SHL$OTIME$ROPI$IEEEX$EBA8$UX$STANDARDLIB$REQ8$PRES8$EABIv2 0x00000000   Number         0  anon$$obj.o ABSOLUTE
    __ARM_use_no_argv                        0x00000000   Number         0  startup.o ABSOLUTE
    __ARM_exceptions_init                     - Undefined Weak Reference
    __alloca_initialize                       - Undefined Weak Reference
    __cpp_initialize__aeabi_                  - Undefined Weak Reference
    __cxa_finalize                            - Undefined Weak Reference
    __sigvec_lookup                           - Undefined Weak Reference
    _atexit_init                              - Undefined Weak Reference
    _call_atexit_fns                          - Undefined Weak Reference
    _clock_init                               - Undefined Weak Reference
    _fp_trap_init                             - Undefined Weak Reference
    _fp_trap_shutdown                         - Undefined Weak Reference
    _get_lc_collate                           - Undefined Weak Reference
    _get_lc_monetary                          - Undefined Weak Reference
    _get_lc_numeric                           - Undefined Weak Reference
    _get_lc_time                              - Undefined Weak Reference
    _getenv_init                              - Undefined Weak Reference
    _handle_redirection                       - Undefined Weak Reference
    _init_alloc                               - Undefined Weak Reference
    _init_user_alloc                          - Undefined Weak Reference
    _initio                                   - Undefined Weak Reference
    _rand_init                                - Undefined Weak Reference
    _signal_finish                            - Undefined Weak Reference
    _signal_init                              - Undefined Weak Reference
    _terminate_alloc                          - Undefined Weak Reference
    _terminate_user_alloc                     - Undefined Weak Reference
    _terminateio                              - Undefined Weak Reference
    __Vectors_Size                           0x00000188   Number         0  startup_stm32f4xx.o ABSOLUTE
    __Vectors                                0x08000000   Data           4  startup_stm32f4xx.o(RESET)
    __Vectors_End                            0x08000188   Data           0  startup_stm32f4xx.o(RESET)
    __main                                   0x08000189   Thumb Code     8  __main.o(!!!main)
    __scatterload                            0x08000191   Thumb Code     0  __scatter.o(!!!scatter)
    __scatterload_rt2                        0x08000191   Thumb Code    44  __scatter.o(!!!scatter)
    __scatterload_rt2_thumb_only             0x08000191   Thumb Code     0  __scatter.o(!!!scatter)
    __scatterload_null                       0x0800019f   Thumb Code     0  __scatter.o(!!!scatter)
    __decompress                             0x080001c5   Thumb Code    90  __dczerorl2.o(!!dczerorl2)
    __decompress1                            0x080001c5   Thumb Code     0  __dczerorl2.o(!!dczerorl2)
    __scatterload_zeroinit                   0x08000221   Thumb Code    28  __scatter_zi.o(!!handler_zi)
    __rt_lib_init                            0x0800023d   Thumb Code     0  libinit.o(.ARM.Collect$$libinit$$00000000)
    __rt_lib_init_fp_1                       0x0800023f   Thumb Code     0  libinit2.o(.ARM.Collect$$libinit$$00000001)
    __rt_lib_init_heap_1                     0x08000243   Thumb Code     0  libinit2.o(.ARM.Collect$$libinit$$00000008)
    __rt_lib_init_lc_common                  0x08000243   Thumb Code     0  libinit2.o(.ARM.Collect$$libinit$$0000000D)
    __rt_lib_init_rand_1                     0x08000243   Thumb Code     0  libinit2.o(.ARM.Collect$$libinit$$0000000C)
    __rt_lib_init_user_alloc_1               0x08000243   Thumb Code     0  libinit2.o(.ARM.Collect$$libinit$$0000000A)
    __rt_lib_init_lc_collate_1               0x08000249   Thumb Code     0  libinit2.o(.ARM.Collect$$libinit$$0000000F)
    __rt_lib_init_lc_ctype_2                 0x08000249   Thumb Code     0  libinit2.o(.ARM.Collect$$libinit$$00000010)
    __rt_lib_init_alloca_1                   0x08000255   Thumb Code     0  libinit2.o(.ARM.Collect$$libinit$$0000002C)
    __rt_lib_init_argv_1                     0x08000255   Thumb Code     0  libinit2.o(.ARM.Collect$$libinit$$0000002A)
    __rt_lib_init_atexit_1                   0x08000255   Thumb Code     0  libinit2.o(.ARM.Collect$$libinit$$00000019)
    __rt_lib_init_clock_1                    0x08000255   Thumb Code     0  libinit2.o(.ARM.Collect$$libinit$$0000001F)
    __rt_lib_init_cpp_1                      0x08000255   Thumb Code     0  libinit2.o(.ARM.Collect$$libinit$$00000030)
    __rt_lib_init_exceptions_1               0x08000255   Thumb Code     0  libinit2.o(.ARM.Collect$$libinit$$0000002E)
    __rt_lib_init_fp_trap_1                  0x08000255   Thumb Code     0  libinit2.o(.ARM.Collect$$libinit$$0000001D)
    __rt_lib_init_getenv_1                   0x08000255   Thumb Code     0  libinit2.o(.ARM.Collect$$libinit$$00000021)
    __rt_lib_init_lc_ctype_1                 0x08000255   Thumb Code     0  libinit2.o(.ARM.Collect$$libinit$$00000011)
    __rt_lib_init_lc_monetary_1              0x08000255   Thumb Code     0  libinit2.o(.ARM.Collect$$libinit$$00000013)
    __rt_lib_init_lc_numeric_1               0x08000255   Thumb Code     0  libinit2.o(.ARM.Collect$$libinit$$00000015)
    __rt_lib_init_lc_time_1                  0x08000255   Thumb Code     0  libinit2.o(.ARM.Collect$$libinit$$00000017)
    __rt_lib_init_return                     0x08000255   Thumb Code     0  libinit2.o(.ARM.Collect$$libinit$$00000031)
    __rt_lib_init_signal_1                   0x08000255   Thumb Code     0  libinit2.o(.ARM.Collect$$libinit$$0000001B)
    __rt_lib_init_stdio_1                    0x08000255   Thumb Code     0  libinit2.o(.ARM.Collect$$libinit$$00000023)
    __rt_lib_shutdown                        0x08000257   Thumb Code     0  libshutdown.o(.ARM.Collect$$libshutdown$$00000000)
    __rt_lib_shutdown_fp_trap_1              0x08000259   Thumb Code     0  libshutdown2.o(.ARM.Collect$$libshutdown$$00000006)
    __rt_lib_shutdown_heap_1                 0x08000259   Thumb Code     0  libshutdown2.o(.ARM.Collect$$libshutdown$$0000000E)
    __rt_lib_shutdown_return                 0x08000259   Thumb Code     0  libshutdown2.o(.ARM.Collect$$libshutdown$$0000000F)
    __rt_lib_shutdown_signal_1               0x08000259   Thumb Code     0  libshutdown2.o(.ARM.Collect$$libshutdown$$00000009)
    __rt_lib_shutdown_stdio_1                0x08000259   Thumb Code     0  libshutdown2.o(.ARM.Collect$$libshutdown$$00000003)
    __rt_lib_shutdown_user_alloc_1           0x08000259   Thumb Code     0  libshutdown2.o(.ARM.Collect$$libshutdown$$0000000B)
    __rt_entry                               0x0800025b   Thumb Code     0  rtentry.o(.ARM.Collect$$rtentry$$00000000)
    __rt_entry_presh_1                       0x0800025b   Thumb Code     0  rtentry2.o(.ARM.Collect$$rtentry$$00000002)
    __rt_entry_sh                            0x0800025b   Thumb Code     0  rtentry4.o(.ARM.Collect$$rtentry$$00000004)
    __rt_entry_li                            0x08000261   Thumb Code     0  rtentry2.o(.ARM.Collect$$rtentry$$0000000A)
    __rt_entry_postsh_1                      0x08000261   Thumb Code     0  rtentry2.o(.ARM.Collect$$rtentry$$00000009)
    __rt_entry_main                          0x08000265   Thumb Code     0  rtentry2.o(.ARM.Collect$$rtentry$$0000000D)
    __rt_entry_postli_1                      0x08000265   Thumb Code     0  rtentry2.o(.ARM.Collect$$rtentry$$0000000C)
    __rt_exit                                0x0800026d   Thumb Code     0  rtexit.o(.ARM.Collect$$rtexit$$00000000)
    __rt_exit_ls                             0x0800026f   Thumb Code     0  rtexit2.o(.ARM.Collect$$rtexit$$00000003)
    __rt_exit_prels_1                        0x0800026f   Thumb Code     0  rtexit2.o(.ARM.Collect$$rtexit$$00000002)
    __rt_exit_exit                           0x08000273   Thumb Code     0  rtexit2.o(.ARM.Collect$$rtexit$$00000004)
    led_thread_entry                         0x08000279   Thumb Code   236  application.o(.text)
    control_thread_entry                     0x08000365   Thumb Code  2844  application.o(.text)
    correct_thread_entry                     0x08000e81   Thumb Code   656  application.o(.text)
    ahrs_thread_entry                        0x0800121d   Thumb Code  1336  application.o(.text)
    rt_init_thread_entry                     0x0800177d   Thumb Code   776  application.o(.text)
    rt_application_init                      0x08001a85   Thumb Code    40  application.o(.text)
    assert_failed                            0x08001aed   Thumb Code    30  startup.o(.text)
    rtthread_startup                         0x08001b0b   Thumb Code    62  startup.o(.text)
    main                                     0x08001b49   Thumb Code    14  startup.o(.text)
    Motor_Set4                               0x08001bb9   Thumb Code    88  motor.o(.text)
    Motor_Set3                               0x08001c11   Thumb Code    88  motor.o(.text)
    Motor_Set2                               0x08001c69   Thumb Code    88  motor.o(.text)
    Motor_Set1                               0x08001cc1   Thumb Code    88  motor.o(.text)
    Motor_Set                                0x08001d19   Thumb Code    40  motor.o(.text)
    Motor_Init                               0x08001d41   Thumb Code    28  motor.o(.text)
    dc_motor_set1                            0x08001d5d   Thumb Code   148  motor.o(.text)
    dc_motor_set2                            0x08001df1   Thumb Code   148  motor.o(.text)
    dc_motor_set                             0x08001e85   Thumb Code    20  motor.o(.text)
    PID_SetTarget                            0x08001ec5   Thumb Code     6  pid.o(.text)
    RangeValue                               0x08001ecb   Thumb Code    92  pid.o(.text)
    PID_Update                               0x08001f27   Thumb Code   410  pid.o(.text)
    PID_xUpdate                              0x080020c1   Thumb Code   502  pid.o(.text)
    PID_Init                                 0x080022b7   Thumb Code    68  pid.o(.text)
    PID_Set_Filt_Alpha                       0x080022fb   Thumb Code   218  pid.o(.text)
    PWMOUT1_Init                             0x080023d5   Thumb Code   258  pwm.o(.text)
    PWMIN2_Init                              0x080024d7   Thumb Code   254  pwm.o(.text)
    PWMIN1_Init                              0x080025d5   Thumb Code   242  pwm.o(.text)
    CoderIn_Init                             0x080026c7   Thumb Code   222  pwm.o(.text)
    EncodeGetMileage                         0x080027a5   Thumb Code    64  pwm.o(.text)
    Encoder_Reset                            0x080027e5   Thumb Code    64  pwm.o(.text)
    TIM5_IRQHandler                          0x08002825   Thumb Code   704  pwm.o(.text)
    TIM3_IRQHandler                          0x08002ae5   Thumb Code   646  pwm.o(.text)
    MoveAve_SMA                              0x08002d81   Thumb Code    68  ahrs.o(.text)
    MoveAve_WMA                              0x08002dc5   Thumb Code    86  ahrs.o(.text)
    Quaternion_ToNumQ                        0x08002e4f   Thumb Code   398  ahrs.o(.text)
    Quaternion_ToAngE                        0x08002fdd   Thumb Code   398  ahrs.o(.text)
    angle_fix                                0x0800316b   Thumb Code    10  ahrs.o(.text)
    AHRSupdate                               0x08003175   Thumb Code  1258  ahrs.o(.text)
    ahrs_update                              0x0800365f   Thumb Code  3676  ahrs.o(.text)
    ahrs_put_mpu6050                         0x080044bb   Thumb Code   326  ahrs.o(.text)
    NVIC_Configuration                       0x08004629   Thumb Code    22  board.o(.text)
    SysTick_Configuration                    0x0800463f   Thumb Code   100  board.o(.text)
    SysTick_Handler                          0x080046a3   Thumb Code    16  board.o(.text)
    rt_hw_board_init                         0x080046b3   Thumb Code    22  board.o(.text)
    Timer4_init                              0x080046d9   Thumb Code    52  hardtimer.o(.text)
    Timer4_GetSec                            0x0800470d   Thumb Code    64  hardtimer.o(.text)
    LED_init                                 0x08004755   Thumb Code    48  led.o(.text)
    LED_set1                                 0x08004785   Thumb Code    26  led.o(.text)
    LED_set2                                 0x0800479f   Thumb Code    26  led.o(.text)
    LED_set3                                 0x080047b9   Thumb Code    26  led.o(.text)
    LED_set4                                 0x080047d3   Thumb Code    26  led.o(.text)
    rt_hw_serial_register                    0x08004ad9   Thumb Code   134  serial.o(.text)
    rt_hw_serial_isr                         0x08004b5f   Thumb Code   478  serial.o(.text)
    rt_hw_serial_dma_tx_isr                  0x08004d3d   Thumb Code   172  serial.o(.text)
    load_settings                            0x08004e2d   Thumb Code   388  settings.o(.text)
    save_settings                            0x08004fb1   Thumb Code    50  settings.o(.text)
    get_pid                                  0x08004fe3   Thumb Code  1476  settings.o(.text)
    save                                     0x080055a7   Thumb Code    92  settings.o(.text)
    set_pitch                                0x08005603   Thumb Code   238  settings.o(.text)
    set_roll                                 0x080056f1   Thumb Code   518  settings.o(.text)
    set_yaw                                  0x080058f7   Thumb Code   240  settings.o(.text)
    set_height                               0x080059e7   Thumb Code   174  settings.o(.text)
    set_pwm                                  0x08005a95   Thumb Code    48  settings.o(.text)
    out_ahrs                                 0x08005ac5   Thumb Code    18  settings.o(.text)
    out_pwm                                  0x08005ad7   Thumb Code    18  settings.o(.text)
    device_test                              0x0800652f   Thumb Code   100  settings.o(.text)
    flash_select                             0x080066d9   Thumb Code    26  spi2.o(.text)
    spi_flash_init                           0x080066f3   Thumb Code    24  spi2.o(.text)
    spi2_configure                           0x0800670b   Thumb Code     6  spi2.o(.text)
    spi2_xfer                                0x08006711   Thumb Code   130  spi2.o(.text)
    CS_Configuration                         0x08006793   Thumb Code    50  spi2.o(.text)
    rt_hw_spi2_init                          0x080067c5   Thumb Code   178  spi2.o(.text)
    i2cInit                                  0x080068c7   Thumb Code    58  stm32_iic.o(.text)
    i2cWriteBuffer                           0x08006ae3   Thumb Code   100  stm32_iic.o(.text)
    i2cwrite                                 0x08006b47   Thumb Code    38  stm32_iic.o(.text)
    i2cRead                                  0x08006b6d   Thumb Code   120  stm32_iic.o(.text)
    i2cread                                  0x08006be5   Thumb Code    38  stm32_iic.o(.text)
    i2cWrite                                 0x08006c0b   Thumb Code    72  stm32_iic.o(.text)
    i2cGetErrorCounter                       0x08006c53   Thumb Code     4  stm32_iic.o(.text)
    NMI_Handler                              0x08006c5d   Thumb Code     2  stm32f4xx_it.o(.text)
    MemManage_Handler                        0x08006c5f   Thumb Code     4  stm32f4xx_it.o(.text)
    BusFault_Handler                         0x08006c63   Thumb Code     4  stm32f4xx_it.o(.text)
    UsageFault_Handler                       0x08006c67   Thumb Code     4  stm32f4xx_it.o(.text)
    SVC_Handler                              0x08006c6b   Thumb Code     2  stm32f4xx_it.o(.text)
    DebugMon_Handler                         0x08006c6d   Thumb Code     2  stm32f4xx_it.o(.text)
    USART1_IRQHandler                        0x08006c6f   Thumb Code     2  stm32f4xx_it.o(.text)
    USART2_IRQHandler                        0x08006c71   Thumb Code    18  stm32f4xx_it.o(.text)
    USART3_IRQHandler                        0x08006c83   Thumb Code    18  stm32f4xx_it.o(.text)
    rt_hw_usart_init                         0x08006d73   Thumb Code   148  usart.o(.text)
    get_ms                                   0x08006e39   Thumb Code     2  inv_mpu.o(.text)
    mpu_reg_dump                             0x08006ec5   Thumb Code    72  inv_mpu.o(.text)
    mpu_read_reg                             0x08006f0d   Thumb Code    66  inv_mpu.o(.text)
    mpu_set_int_latched                      0x08006f4f   Thumb Code   102  inv_mpu.o(.text)
    mpu_set_sensors                          0x08006fb5   Thumb Code   202  inv_mpu.o(.text)
    mpu_set_bypass                           0x0800707f   Thumb Code   328  inv_mpu.o(.text)
    mpu_reset_fifo                           0x080071c7   Thumb Code   454  inv_mpu.o(.text)
    mpu_configure_fifo                       0x0800738d   Thumb Code   106  inv_mpu.o(.text)
    mpu_set_lpf                              0x080073f7   Thumb Code   126  inv_mpu.o(.text)
    mpu_lp_accel_mode                        0x08007475   Thumb Code   218  inv_mpu.o(.text)
    mpu_set_sample_rate                      0x0800754f   Thumb Code   152  inv_mpu.o(.text)
    mpu_set_accel_fsr                        0x080075e7   Thumb Code   132  inv_mpu.o(.text)
    mpu_set_gyro_fsr                         0x0800766b   Thumb Code   132  inv_mpu.o(.text)
    mpu_init                                 0x080076ef   Thumb Code   444  inv_mpu.o(.text)
    mpu_get_gyro_reg                         0x080078ab   Thumb Code   110  inv_mpu.o(.text)
    mpu_get_accel_reg                        0x08007919   Thumb Code   110  inv_mpu.o(.text)
    mpu_get_temperature                      0x08007987   Thumb Code   254  inv_mpu.o(.text)
    mpu_set_accel_bias                       0x08007a85   Thumb Code   380  inv_mpu.o(.text)
    mpu_get_gyro_fsr                         0x08007c01   Thumb Code    64  inv_mpu.o(.text)
    mpu_get_accel_fsr                        0x08007c41   Thumb Code    72  inv_mpu.o(.text)
    mpu_get_lpf                              0x08007c89   Thumb Code    74  inv_mpu.o(.text)
    mpu_get_sample_rate                      0x08007cd3   Thumb Code    26  inv_mpu.o(.text)
    mpu_get_compass_sample_rate              0x08007ced   Thumb Code    10  inv_mpu.o(.text)
    mpu_set_compass_sample_rate              0x08007cf7   Thumb Code     8  inv_mpu.o(.text)
    mpu_get_gyro_sens                        0x08007cff   Thumb Code    74  inv_mpu.o(.text)
    mpu_get_accel_sens                       0x08007d49   Thumb Code    78  inv_mpu.o(.text)
    mpu_get_fifo_config                      0x08007d97   Thumb Code    12  inv_mpu.o(.text)
    mpu_get_power_state                      0x08007da3   Thumb Code    22  inv_mpu.o(.text)
    mpu_get_int_status                       0x08007db9   Thumb Code    64  inv_mpu.o(.text)
    mpu_read_fifo                            0x08007df9   Thumb Code   522  inv_mpu.o(.text)
    mpu_read_fifo_stream                     0x08008003   Thumb Code   166  inv_mpu.o(.text)
    mpu_set_int_level                        0x080080a9   Thumb Code    12  inv_mpu.o(.text)
    mpu_set_dmp_state                        0x080087d7   Thumb Code   138  inv_mpu.o(.text)
    mpu_run_self_test                        0x08008861   Thumb Code   278  inv_mpu.o(.text)
    mpu_write_mem                            0x08008977   Thumb Code   122  inv_mpu.o(.text)
    mpu_read_mem                             0x080089f1   Thumb Code   122  inv_mpu.o(.text)
    mpu_load_firmware                        0x08008a6b   Thumb Code   188  inv_mpu.o(.text)
    mpu_get_dmp_state                        0x08008b27   Thumb Code    14  inv_mpu.o(.text)
    mpu_get_compass_reg                      0x08008b35   Thumb Code     8  inv_mpu.o(.text)
    mpu_get_compass_fsr                      0x08008b3d   Thumb Code     8  inv_mpu.o(.text)
    mpu_lp_motion_interrupt                  0x08008b45   Thumb Code   512  inv_mpu.o(.text)
    dmp_load_motion_driver_firmware          0x08008d49   Thumb Code    20  inv_mpu_dmp_motion_driver.o(.text)
    dmp_set_orientation                      0x08008d5d   Thumb Code   290  inv_mpu_dmp_motion_driver.o(.text)
    dmp_set_gyro_bias                        0x08008e7f   Thumb Code   294  inv_mpu_dmp_motion_driver.o(.text)
    dmp_set_accel_bias                       0x08008fa5   Thumb Code   300  inv_mpu_dmp_motion_driver.o(.text)
    dmp_set_fifo_rate                        0x080090d1   Thumb Code   136  inv_mpu_dmp_motion_driver.o(.text)
    dmp_get_fifo_rate                        0x08009159   Thumb Code    12  inv_mpu_dmp_motion_driver.o(.text)
    dmp_set_tap_thresh                       0x08009165   Thumb Code   412  inv_mpu_dmp_motion_driver.o(.text)
    dmp_set_tap_axes                         0x08009301   Thumb Code    70  inv_mpu_dmp_motion_driver.o(.text)
    dmp_set_tap_count                        0x08009347   Thumb Code    38  inv_mpu_dmp_motion_driver.o(.text)
    dmp_set_tap_time                         0x0800936d   Thumb Code    38  inv_mpu_dmp_motion_driver.o(.text)
    dmp_set_tap_time_multi                   0x08009393   Thumb Code    38  inv_mpu_dmp_motion_driver.o(.text)
    dmp_set_shake_reject_thresh              0x080093b9   Thumb Code    56  inv_mpu_dmp_motion_driver.o(.text)
    dmp_set_shake_reject_time                0x080093f1   Thumb Code    38  inv_mpu_dmp_motion_driver.o(.text)
    dmp_set_shake_reject_timeout             0x08009417   Thumb Code    38  inv_mpu_dmp_motion_driver.o(.text)
    dmp_get_pedometer_step_count             0x0800943d   Thumb Code    66  inv_mpu_dmp_motion_driver.o(.text)
    dmp_set_pedometer_step_count             0x0800947f   Thumb Code    42  inv_mpu_dmp_motion_driver.o(.text)
    dmp_get_pedometer_walk_time              0x080094a9   Thumb Code    72  inv_mpu_dmp_motion_driver.o(.text)
    dmp_set_pedometer_walk_time              0x080094f1   Thumb Code    48  inv_mpu_dmp_motion_driver.o(.text)
    dmp_enable_6x_lp_quat                    0x08009521   Thumb Code   100  inv_mpu_dmp_motion_driver.o(.text)
    dmp_enable_lp_quat                       0x08009585   Thumb Code    60  inv_mpu_dmp_motion_driver.o(.text)
    dmp_enable_gyro_cal                      0x080095c1   Thumb Code    62  inv_mpu_dmp_motion_driver.o(.text)
    dmp_enable_feature                       0x080095ff   Thumb Code   530  inv_mpu_dmp_motion_driver.o(.text)
    dmp_get_enabled_features                 0x08009811   Thumb Code    12  inv_mpu_dmp_motion_driver.o(.text)
    dmp_set_interrupt_mode                   0x0800987b   Thumb Code    66  inv_mpu_dmp_motion_driver.o(.text)
    dmp_read_fifo                            0x080098bd   Thumb Code   514  inv_mpu_dmp_motion_driver.o(.text)
    dmp_register_tap_cb                      0x08009abf   Thumb Code    10  inv_mpu_dmp_motion_driver.o(.text)
    dmp_register_android_orient_cb           0x08009ac9   Thumb Code    10  inv_mpu_dmp_motion_driver.o(.text)
    SystemInit                               0x08009bb5   Thumb Code    88  system_stm32f4xx.o(.text)
    SystemCoreClockUpdate                    0x08009c0d   Thumb Code   174  system_stm32f4xx.o(.text)
    NVIC_PriorityGroupConfig                 0x08009ce9   Thumb Code    54  misc.o(.text)
    NVIC_Init                                0x08009d1f   Thumb Code   164  misc.o(.text)
    NVIC_SetVectorTable                      0x08009dc3   Thumb Code    60  misc.o(.text)
    NVIC_SystemLPConfig                      0x08009dff   Thumb Code    78  misc.o(.text)
    SysTick_CLKSourceConfig                  0x08009e4d   Thumb Code    62  misc.o(.text)
    DMA_DeInit                               0x08009ed5   Thumb Code   462  stm32f4xx_dma.o(.text)
    DMA_Init                                 0x0800a0a3   Thumb Code   744  stm32f4xx_dma.o(.text)
    DMA_StructInit                           0x0800a38b   Thumb Code    34  stm32f4xx_dma.o(.text)
    DMA_Cmd                                  0x0800a3ad   Thumb Code   186  stm32f4xx_dma.o(.text)
    DMA_PeriphIncOffsetSizeConfig            0x0800a467   Thumb Code   188  stm32f4xx_dma.o(.text)
    DMA_FlowControllerConfig                 0x0800a523   Thumb Code   186  stm32f4xx_dma.o(.text)
    DMA_SetCurrDataCounter                   0x0800a5dd   Thumb Code   148  stm32f4xx_dma.o(.text)
    DMA_GetCurrDataCounter                   0x0800a671   Thumb Code   148  stm32f4xx_dma.o(.text)
    DMA_DoubleBufferModeConfig               0x0800a705   Thumb Code   204  stm32f4xx_dma.o(.text)
    DMA_DoubleBufferModeCmd                  0x0800a7d1   Thumb Code   186  stm32f4xx_dma.o(.text)
    DMA_MemoryTargetConfig                   0x0800a88b   Thumb Code   178  stm32f4xx_dma.o(.text)
    DMA_GetCurrentMemoryTarget               0x0800a93d   Thumb Code   162  stm32f4xx_dma.o(.text)
    DMA_GetCmdStatus                         0x0800a9df   Thumb Code   162  stm32f4xx_dma.o(.text)
    DMA_GetFIFOStatus                        0x0800aa81   Thumb Code   154  stm32f4xx_dma.o(.text)
    DMA_GetFlagStatus                        0x0800ab1b   Thumb Code   486  stm32f4xx_dma.o(.text)
    DMA_ClearFlag                            0x0800ad01   Thumb Code   220  stm32f4xx_dma.o(.text)
    DMA_ITConfig                             0x0800addd   Thumb Code   244  stm32f4xx_dma.o(.text)
    DMA_GetITStatus                          0x0800aed1   Thumb Code   590  stm32f4xx_dma.o(.text)
    DMA_ClearITPendingBit                    0x0800b11f   Thumb Code   222  stm32f4xx_dma.o(.text)
    GPIO_DeInit                              0x0800b2a1   Thumb Code   284  stm32f4xx_gpio.o(.text)
    GPIO_Init                                0x0800b3bd   Thumb Code   342  stm32f4xx_gpio.o(.text)
    GPIO_StructInit                          0x0800b513   Thumb Code    18  stm32f4xx_gpio.o(.text)
    GPIO_PinLockConfig                       0x0800b525   Thumb Code   122  stm32f4xx_gpio.o(.text)
    GPIO_ReadInputDataBit                    0x0800b59f   Thumb Code   182  stm32f4xx_gpio.o(.text)
    GPIO_ReadInputData                       0x0800b655   Thumb Code   174  stm32f4xx_gpio.o(.text)
    GPIO_ReadOutputDataBit                   0x0800b703   Thumb Code   186  stm32f4xx_gpio.o(.text)
    GPIO_ReadOutputData                      0x0800b7bd   Thumb Code    78  stm32f4xx_gpio.o(.text)
    GPIO_SetBits                             0x0800b80b   Thumb Code    98  stm32f4xx_gpio.o(.text)
    GPIO_ResetBits                           0x0800b86d   Thumb Code    98  stm32f4xx_gpio.o(.text)
    GPIO_WriteBit                            0x0800b8cf   Thumb Code   200  stm32f4xx_gpio.o(.text)
    GPIO_Write                               0x0800b997   Thumb Code    78  stm32f4xx_gpio.o(.text)
    GPIO_ToggleBits                          0x0800b9e5   Thumb Code    82  stm32f4xx_gpio.o(.text)
    GPIO_PinAFConfig                         0x0800ba37   Thumb Code   384  stm32f4xx_gpio.o(.text)
    RCC_DeInit                               0x0800bbb9   Thumb Code    60  stm32f4xx_rcc.o(.text)
    RCC_HSEConfig                            0x0800bbf5   Thumb Code    38  stm32f4xx_rcc.o(.text)
    RCC_GetFlagStatus                        0x0800bc1b   Thumb Code   130  stm32f4xx_rcc.o(.text)
    RCC_WaitForHSEStartUp                    0x0800bc9d   Thumb Code    56  stm32f4xx_rcc.o(.text)
    RCC_AdjustHSICalibrationValue            0x0800bcd5   Thumb Code    38  stm32f4xx_rcc.o(.text)
    RCC_HSICmd                               0x0800bcfb   Thumb Code    28  stm32f4xx_rcc.o(.text)
    RCC_LSEConfig                            0x0800bd17   Thumb Code    72  stm32f4xx_rcc.o(.text)
    RCC_LSICmd                               0x0800bd5f   Thumb Code    28  stm32f4xx_rcc.o(.text)
    RCC_PLLConfig                            0x0800bd7b   Thumb Code   156  stm32f4xx_rcc.o(.text)
    RCC_PLLCmd                               0x0800be17   Thumb Code    28  stm32f4xx_rcc.o(.text)
    RCC_PLLI2SConfig                         0x0800be33   Thumb Code    62  stm32f4xx_rcc.o(.text)
    RCC_PLLI2SCmd                            0x0800be71   Thumb Code    28  stm32f4xx_rcc.o(.text)
    RCC_ClockSecuritySystemCmd               0x0800be8d   Thumb Code    28  stm32f4xx_rcc.o(.text)
    RCC_MCO1Config                           0x0800bea9   Thumb Code   102  stm32f4xx_rcc.o(.text)
    RCC_MCO2Config                           0x0800bf0f   Thumb Code   102  stm32f4xx_rcc.o(.text)
    RCC_SYSCLKConfig                         0x0800bf75   Thumb Code   124  stm32f4xx_rcc.o(.text)
    RCC_GetSYSCLKSource                      0x0800bff1   Thumb Code    10  stm32f4xx_rcc.o(.text)
    RCC_HCLKConfig                           0x0800bffb   Thumb Code    68  stm32f4xx_rcc.o(.text)
    RCC_PCLK1Config                          0x0800c03f   Thumb Code    60  stm32f4xx_rcc.o(.text)
    RCC_PCLK2Config                          0x0800c07b   Thumb Code    62  stm32f4xx_rcc.o(.text)
    RCC_GetClocksFreq                        0x0800c0b9   Thumb Code   214  stm32f4xx_rcc.o(.text)
    RCC_RTCCLKConfig                         0x0800c18f   Thumb Code   262  stm32f4xx_rcc.o(.text)
    RCC_RTCCLKCmd                            0x0800c295   Thumb Code    30  stm32f4xx_rcc.o(.text)
    RCC_BackupResetCmd                       0x0800c2b3   Thumb Code    32  stm32f4xx_rcc.o(.text)
    RCC_I2SCLKConfig                         0x0800c2d3   Thumb Code    30  stm32f4xx_rcc.o(.text)
    RCC_AHB1PeriphClockCmd                   0x0800c2f1   Thumb Code    82  stm32f4xx_rcc.o(.text)
    RCC_AHB2PeriphClockCmd                   0x0800c343   Thumb Code    82  stm32f4xx_rcc.o(.text)
    RCC_AHB3PeriphClockCmd                   0x0800c395   Thumb Code   232  stm32f4xx_rcc.o(.text)
    RCC_APB1PeriphClockCmd                   0x0800c47d   Thumb Code    82  stm32f4xx_rcc.o(.text)
    RCC_APB2PeriphClockCmd                   0x0800c4cf   Thumb Code    82  stm32f4xx_rcc.o(.text)
    RCC_AHB1PeriphResetCmd                   0x0800c521   Thumb Code    82  stm32f4xx_rcc.o(.text)
    RCC_AHB2PeriphResetCmd                   0x0800c573   Thumb Code    82  stm32f4xx_rcc.o(.text)
    RCC_AHB3PeriphResetCmd                   0x0800c5c5   Thumb Code    82  stm32f4xx_rcc.o(.text)
    RCC_APB1PeriphResetCmd                   0x0800c617   Thumb Code    82  stm32f4xx_rcc.o(.text)
    RCC_APB2PeriphResetCmd                   0x0800c669   Thumb Code    82  stm32f4xx_rcc.o(.text)
    RCC_AHB1PeriphClockLPModeCmd             0x0800c6bb   Thumb Code    82  stm32f4xx_rcc.o(.text)
    RCC_AHB2PeriphClockLPModeCmd             0x0800c70d   Thumb Code    82  stm32f4xx_rcc.o(.text)
    RCC_AHB3PeriphClockLPModeCmd             0x0800c75f   Thumb Code    82  stm32f4xx_rcc.o(.text)
    RCC_APB1PeriphClockLPModeCmd             0x0800c7b1   Thumb Code    82  stm32f4xx_rcc.o(.text)
    RCC_APB2PeriphClockLPModeCmd             0x0800c803   Thumb Code   106  stm32f4xx_rcc.o(.text)
    RCC_ITConfig                             0x0800c86d   Thumb Code    74  stm32f4xx_rcc.o(.text)
    RCC_ClearFlag                            0x0800c8b7   Thumb Code    18  stm32f4xx_rcc.o(.text)
    RCC_GetITStatus                          0x0800c8c9   Thumb Code    68  stm32f4xx_rcc.o(.text)
    RCC_ClearITPendingBit                    0x0800c90d   Thumb Code    34  stm32f4xx_rcc.o(.text)
    SPI_I2S_DeInit                           0x0800c935   Thumb Code   104  stm32f4xx_spi.o(.text)
    SPI_Init                                 0x0800c99d   Thumb Code   348  stm32f4xx_spi.o(.text)
    I2S_Init                                 0x0800caf9   Thumb Code   508  stm32f4xx_spi.o(.text)
    SPI_StructInit                           0x0800ccf5   Thumb Code    24  stm32f4xx_spi.o(.text)
    I2S_StructInit                           0x0800cd0d   Thumb Code   104  stm32f4xx_spi.o(.text)
    SPI_Cmd                                  0x0800cd75   Thumb Code    82  stm32f4xx_spi.o(.text)
    I2S_Cmd                                  0x0800cdc7   Thumb Code    88  stm32f4xx_spi.o(.text)
    SPI_DataSizeConfig                       0x0800ce1f   Thumb Code    78  stm32f4xx_spi.o(.text)
    SPI_BiDirectionalLineConfig              0x0800ce6d   Thumb Code    94  stm32f4xx_spi.o(.text)
    SPI_NSSInternalSoftwareConfig            0x0800cecb   Thumb Code    96  stm32f4xx_spi.o(.text)
    SPI_SSOutputCmd                          0x0800cf2b   Thumb Code    82  stm32f4xx_spi.o(.text)
    SPI_TIModeCmd                            0x0800cf7d   Thumb Code    82  stm32f4xx_spi.o(.text)
    I2S_FullDuplexConfig                     0x0800cfcf   Thumb Code   258  stm32f4xx_spi.o(.text)
    SPI_I2S_ReceiveData                      0x0800d0d1   Thumb Code    52  stm32f4xx_spi.o(.text)
    SPI_I2S_SendData                         0x0800d105   Thumb Code    54  stm32f4xx_spi.o(.text)
    SPI_CalculateCRC                         0x0800d13b   Thumb Code    98  stm32f4xx_spi.o(.text)
    SPI_TransmitCRC                          0x0800d19d   Thumb Code    46  stm32f4xx_spi.o(.text)
    SPI_GetCRC                               0x0800d1cb   Thumb Code    74  stm32f4xx_spi.o(.text)
    SPI_GetCRCPolynomial                     0x0800d215   Thumb Code    40  stm32f4xx_spi.o(.text)
    SPI_I2S_DMACmd                           0x0800d23d   Thumb Code   114  stm32f4xx_spi.o(.text)
    SPI_I2S_ITConfig                         0x0800d2af   Thumb Code   138  stm32f4xx_spi.o(.text)
    SPI_I2S_GetFlagStatus                    0x0800d339   Thumb Code   120  stm32f4xx_spi.o(.text)
    SPI_I2S_ClearFlag                        0x0800d3b1   Thumb Code    74  stm32f4xx_spi.o(.text)
    SPI_I2S_GetITStatus                      0x0800d3fb   Thumb Code   154  stm32f4xx_spi.o(.text)
    SPI_I2S_ClearITPendingBit                0x0800d495   Thumb Code    86  stm32f4xx_spi.o(.text)
    TIM_DeInit                               0x0800d4fd   Thumb Code   440  stm32f4xx_tim.o(.text)
    TIM_TimeBaseInit                         0x0800d6b5   Thumb Code   278  stm32f4xx_tim.o(.text)
    TIM_TimeBaseStructInit                   0x0800d7cb   Thumb Code    18  stm32f4xx_tim.o(.text)
    TIM_PrescalerConfig                      0x0800d7dd   Thumb Code   128  stm32f4xx_tim.o(.text)
    TIM_CounterModeConfig                    0x0800d85d   Thumb Code   100  stm32f4xx_tim.o(.text)
    TIM_SetCounter                           0x0800d8c1   Thumb Code   222  stm32f4xx_tim.o(.text)
    TIM_SetAutoreload                        0x0800d99f   Thumb Code   108  stm32f4xx_tim.o(.text)
    TIM_GetCounter                           0x0800da0b   Thumb Code   106  stm32f4xx_tim.o(.text)
    TIM_GetPrescaler                         0x0800da75   Thumb Code   106  stm32f4xx_tim.o(.text)
    TIM_UpdateDisableConfig                  0x0800dadf   Thumb Code   148  stm32f4xx_tim.o(.text)
    TIM_UpdateRequestConfig                  0x0800db73   Thumb Code   148  stm32f4xx_tim.o(.text)
    TIM_ARRPreloadConfig                     0x0800dc07   Thumb Code   148  stm32f4xx_tim.o(.text)
    TIM_SelectOnePulseMode                   0x0800dc9b   Thumb Code   142  stm32f4xx_tim.o(.text)
    TIM_SetClockDivision                     0x0800dd29   Thumb Code   192  stm32f4xx_tim.o(.text)
    TIM_Cmd                                  0x0800dde9   Thumb Code   148  stm32f4xx_tim.o(.text)
    TIM_OC1Init                              0x0800de7d   Thumb Code   416  stm32f4xx_tim.o(.text)
    TIM_OC2Init                              0x0800e01d   Thumb Code   486  stm32f4xx_tim.o(.text)
    TIM_OC3Init                              0x0800e203   Thumb Code   416  stm32f4xx_tim.o(.text)
    TIM_OC4Init                              0x0800e3a3   Thumb Code   300  stm32f4xx_tim.o(.text)
    TIM_OCStructInit                         0x0800e4cf   Thumb Code    20  stm32f4xx_tim.o(.text)
    TIM_SelectOCxM                           0x0800e4e3   Thumb Code   256  stm32f4xx_tim.o(.text)
    TIM_SetCompare1                          0x0800e5e3   Thumb Code   142  stm32f4xx_tim.o(.text)
    TIM_SetCompare2                          0x0800e671   Thumb Code    72  stm32f4xx_tim.o(.text)
    TIM_SetCompare3                          0x0800e6b9   Thumb Code    60  stm32f4xx_tim.o(.text)
    TIM_SetCompare4                          0x0800e6f5   Thumb Code    60  stm32f4xx_tim.o(.text)
    TIM_ForcedOC1Config                      0x0800e731   Thumb Code   130  stm32f4xx_tim.o(.text)
    TIM_ForcedOC2Config                      0x0800e7b3   Thumb Code   114  stm32f4xx_tim.o(.text)
    TIM_ForcedOC3Config                      0x0800e825   Thumb Code    94  stm32f4xx_tim.o(.text)
    TIM_ForcedOC4Config                      0x0800e883   Thumb Code   102  stm32f4xx_tim.o(.text)
    TIM_OC1PreloadConfig                     0x0800e8e9   Thumb Code   124  stm32f4xx_tim.o(.text)
    TIM_OC2PreloadConfig                     0x0800e965   Thumb Code   108  stm32f4xx_tim.o(.text)
    TIM_OC3PreloadConfig                     0x0800e9d1   Thumb Code   136  stm32f4xx_tim.o(.text)
    TIM_OC4PreloadConfig                     0x0800ea59   Thumb Code    96  stm32f4xx_tim.o(.text)
    TIM_OC1FastConfig                        0x0800eab9   Thumb Code   124  stm32f4xx_tim.o(.text)
    TIM_OC2FastConfig                        0x0800eb35   Thumb Code   108  stm32f4xx_tim.o(.text)
    TIM_OC3FastConfig                        0x0800eba1   Thumb Code    88  stm32f4xx_tim.o(.text)
    TIM_OC4FastConfig                        0x0800ebf9   Thumb Code    96  stm32f4xx_tim.o(.text)
    TIM_ClearOC1Ref                          0x0800ec59   Thumb Code   124  stm32f4xx_tim.o(.text)
    TIM_ClearOC2Ref                          0x0800ecd5   Thumb Code   106  stm32f4xx_tim.o(.text)
    TIM_ClearOC3Ref                          0x0800ed3f   Thumb Code    88  stm32f4xx_tim.o(.text)
    TIM_ClearOC4Ref                          0x0800ed97   Thumb Code    94  stm32f4xx_tim.o(.text)
    TIM_OC1PolarityConfig                    0x0800edf5   Thumb Code   174  stm32f4xx_tim.o(.text)
    TIM_OC1NPolarityConfig                   0x0800eea3   Thumb Code    64  stm32f4xx_tim.o(.text)
    TIM_OC2PolarityConfig                    0x0800eee3   Thumb Code   108  stm32f4xx_tim.o(.text)
    TIM_OC2NPolarityConfig                   0x0800ef4f   Thumb Code    72  stm32f4xx_tim.o(.text)
    TIM_OC3PolarityConfig                    0x0800ef97   Thumb Code    96  stm32f4xx_tim.o(.text)
    TIM_OC3NPolarityConfig                   0x0800eff7   Thumb Code    72  stm32f4xx_tim.o(.text)
    TIM_OC4PolarityConfig                    0x0800f03f   Thumb Code    96  stm32f4xx_tim.o(.text)
    TIM_CCxCmd                               0x0800f09f   Thumb Code   168  stm32f4xx_tim.o(.text)
    TIM_CCxNCmd                              0x0800f147   Thumb Code   104  stm32f4xx_tim.o(.text)
    TIM_SetIC4Prescaler                      0x0800f1af   Thumb Code   106  stm32f4xx_tim.o(.text)
    TIM_SetIC3Prescaler                      0x0800f299   Thumb Code    98  stm32f4xx_tim.o(.text)
    TIM_SetIC2Prescaler                      0x0800f343   Thumb Code   118  stm32f4xx_tim.o(.text)
    TIM_SetIC1Prescaler                      0x0800f409   Thumb Code   134  stm32f4xx_tim.o(.text)
    TIM_ICInit                               0x0800f4c9   Thumb Code   508  stm32f4xx_tim.o(.text)
    TIM_ICStructInit                         0x0800f6c5   Thumb Code    18  stm32f4xx_tim.o(.text)
    TIM_PWMIConfig                           0x0800f6d7   Thumb Code   184  stm32f4xx_tim.o(.text)
    TIM_GetCapture1                          0x0800f78f   Thumb Code    92  stm32f4xx_tim.o(.text)
    TIM_GetCapture2                          0x0800f7eb   Thumb Code    68  stm32f4xx_tim.o(.text)
    TIM_GetCapture3                          0x0800f82f   Thumb Code    56  stm32f4xx_tim.o(.text)
    TIM_GetCapture4                          0x0800f867   Thumb Code    56  stm32f4xx_tim.o(.text)
    TIM_BDTRConfig                           0x0800f89f   Thumb Code   222  stm32f4xx_tim.o(.text)
    TIM_BDTRStructInit                       0x0800f97d   Thumb Code    18  stm32f4xx_tim.o(.text)
    TIM_CtrlPWMOutputs                       0x0800f98f   Thumb Code    78  stm32f4xx_tim.o(.text)
    TIM_SelectCOM                            0x0800f9dd   Thumb Code    72  stm32f4xx_tim.o(.text)
    TIM_CCPreloadControl                     0x0800fa25   Thumb Code    72  stm32f4xx_tim.o(.text)
    TIM_ITConfig                             0x0800fa6d   Thumb Code   218  stm32f4xx_tim.o(.text)
    TIM_GenerateEvent                        0x0800fb47   Thumb Code   126  stm32f4xx_tim.o(.text)
    TIM_GetFlagStatus                        0x0800fbc5   Thumb Code   188  stm32f4xx_tim.o(.text)
    TIM_ClearFlag                            0x0800fc81   Thumb Code   108  stm32f4xx_tim.o(.text)
    TIM_GetITStatus                          0x0800fced   Thumb Code   186  stm32f4xx_tim.o(.text)
    TIM_ClearITPendingBit                    0x0800fda7   Thumb Code   108  stm32f4xx_tim.o(.text)
    TIM_DMAConfig                            0x0800fe13   Thumb Code   334  stm32f4xx_tim.o(.text)
    TIM_DMACmd                               0x0800ff61   Thumb Code   126  stm32f4xx_tim.o(.text)
    TIM_SelectCCDMA                          0x0800ffdf   Thumb Code    96  stm32f4xx_tim.o(.text)
    TIM_InternalClockConfig                  0x0801003f   Thumb Code    76  stm32f4xx_tim.o(.text)
    TIM_SelectInputTrigger                   0x0801008b   Thumb Code   148  stm32f4xx_tim.o(.text)
    TIM_ITRxExternalClockConfig              0x0801011f   Thumb Code   110  stm32f4xx_tim.o(.text)
    TIM_TIxExternalClockConfig               0x0801018d   Thumb Code   184  stm32f4xx_tim.o(.text)
    TIM_ETRConfig                            0x08010245   Thumb Code   164  stm32f4xx_tim.o(.text)
    TIM_ETRClockMode1Config                  0x080102e9   Thumb Code   228  stm32f4xx_tim.o(.text)
    TIM_ETRClockMode2Config                  0x080103cd   Thumb Code   152  stm32f4xx_tim.o(.text)
    TIM_SelectOutputTrigger                  0x08010465   Thumb Code   126  stm32f4xx_tim.o(.text)
    TIM_SelectSlaveMode                      0x080104e3   Thumb Code   112  stm32f4xx_tim.o(.text)
    TIM_SelectMasterSlaveMode                0x08010553   Thumb Code   102  stm32f4xx_tim.o(.text)
    TIM_EncoderInterfaceConfig               0x080105b9   Thumb Code   226  stm32f4xx_tim.o(.text)
    TIM_SelectHallSensor                     0x0801069b   Thumb Code   108  stm32f4xx_tim.o(.text)
    TIM_RemapConfig                          0x08010707   Thumb Code   138  stm32f4xx_tim.o(.text)
    USART_DeInit                             0x08010791   Thumb Code   202  stm32f4xx_usart.o(.text)
    USART_Init                               0x0801085b   Thumb Code   456  stm32f4xx_usart.o(.text)
    USART_StructInit                         0x08010a23   Thumb Code    24  stm32f4xx_usart.o(.text)
    USART_ClockInit                          0x08010a3b   Thumb Code   166  stm32f4xx_usart.o(.text)
    USART_ClockStructInit                    0x08010ae1   Thumb Code    12  stm32f4xx_usart.o(.text)
    USART_Cmd                                0x08010aed   Thumb Code    96  stm32f4xx_usart.o(.text)
    USART_SetPrescaler                       0x08010b4d   Thumb Code   160  stm32f4xx_usart.o(.text)
    USART_OverSampling8Cmd                   0x08010bed   Thumb Code    98  stm32f4xx_usart.o(.text)
    USART_OneBitMethodCmd                    0x08010c4f   Thumb Code   100  stm32f4xx_usart.o(.text)
    USART_SendData                           0x08010cb3   Thumb Code    84  stm32f4xx_usart.o(.text)
    USART_ReceiveData                        0x08010d07   Thumb Code    62  stm32f4xx_usart.o(.text)
    USART_SetAddress                         0x08010d45   Thumb Code    92  stm32f4xx_usart.o(.text)
    USART_ReceiverWakeUpCmd                  0x08010da1   Thumb Code   100  stm32f4xx_usart.o(.text)
    USART_WakeUpConfig                       0x08010e05   Thumb Code    96  stm32f4xx_usart.o(.text)
    USART_LINBreakDetectLengthConfig         0x08010e65   Thumb Code    94  stm32f4xx_usart.o(.text)
    USART_LINCmd                             0x08010ec3   Thumb Code   100  stm32f4xx_usart.o(.text)
    USART_SendBreak                          0x08010f27   Thumb Code    64  stm32f4xx_usart.o(.text)
    USART_HalfDuplexCmd                      0x08010f67   Thumb Code   100  stm32f4xx_usart.o(.text)
    USART_SetGuardTime                       0x08010fcb   Thumb Code    86  stm32f4xx_usart.o(.text)
    USART_SmartCardCmd                       0x08011021   Thumb Code    88  stm32f4xx_usart.o(.text)
    USART_SmartCardNACKCmd                   0x08011079   Thumb Code    88  stm32f4xx_usart.o(.text)
    USART_IrDAConfig                         0x080110d1   Thumb Code    94  stm32f4xx_usart.o(.text)
    USART_IrDACmd                            0x0801112f   Thumb Code   100  stm32f4xx_usart.o(.text)
    USART_DMACmd                             0x08011193   Thumb Code   120  stm32f4xx_usart.o(.text)
    USART_ITConfig                           0x0801120b   Thumb Code   268  stm32f4xx_usart.o(.text)
    USART_GetFlagStatus                      0x08011317   Thumb Code   176  stm32f4xx_usart.o(.text)
    USART_ClearFlag                          0x080113c7   Thumb Code   160  stm32f4xx_usart.o(.text)
    USART_GetITStatus                        0x08011467   Thumb Code   284  stm32f4xx_usart.o(.text)
    USART_ClearITPendingBit                  0x08011583   Thumb Code   170  stm32f4xx_usart.o(.text)
    Reset_Handler                            0x08011645   Thumb Code     8  startup_stm32f4xx.o(.text)
    ADC_IRQHandler                           0x0801165f   Thumb Code     0  startup_stm32f4xx.o(.text)
    CAN1_RX0_IRQHandler                      0x0801165f   Thumb Code     0  startup_stm32f4xx.o(.text)
    CAN1_RX1_IRQHandler                      0x0801165f   Thumb Code     0  startup_stm32f4xx.o(.text)
    CAN1_SCE_IRQHandler                      0x0801165f   Thumb Code     0  startup_stm32f4xx.o(.text)
    CAN1_TX_IRQHandler                       0x0801165f   Thumb Code     0  startup_stm32f4xx.o(.text)
    CAN2_RX0_IRQHandler                      0x0801165f   Thumb Code     0  startup_stm32f4xx.o(.text)
    CAN2_RX1_IRQHandler                      0x0801165f   Thumb Code     0  startup_stm32f4xx.o(.text)
    CAN2_SCE_IRQHandler                      0x0801165f   Thumb Code     0  startup_stm32f4xx.o(.text)
    CAN2_TX_IRQHandler                       0x0801165f   Thumb Code     0  startup_stm32f4xx.o(.text)
    CRYP_IRQHandler                          0x0801165f   Thumb Code     0  startup_stm32f4xx.o(.text)
    DCMI_IRQHandler                          0x0801165f   Thumb Code     0  startup_stm32f4xx.o(.text)
    DMA1_Stream0_IRQHandler                  0x0801165f   Thumb Code     0  startup_stm32f4xx.o(.text)
    DMA1_Stream1_IRQHandler                  0x0801165f   Thumb Code     0  startup_stm32f4xx.o(.text)
    DMA1_Stream2_IRQHandler                  0x0801165f   Thumb Code     0  startup_stm32f4xx.o(.text)
    DMA1_Stream3_IRQHandler                  0x0801165f   Thumb Code     0  startup_stm32f4xx.o(.text)
    DMA1_Stream4_IRQHandler                  0x0801165f   Thumb Code     0  startup_stm32f4xx.o(.text)
    DMA1_Stream5_IRQHandler                  0x0801165f   Thumb Code     0  startup_stm32f4xx.o(.text)
    DMA1_Stream6_IRQHandler                  0x0801165f   Thumb Code     0  startup_stm32f4xx.o(.text)
    DMA1_Stream7_IRQHandler                  0x0801165f   Thumb Code     0  startup_stm32f4xx.o(.text)
    DMA2_Stream0_IRQHandler                  0x0801165f   Thumb Code     0  startup_stm32f4xx.o(.text)
    DMA2_Stream1_IRQHandler                  0x0801165f   Thumb Code     0  startup_stm32f4xx.o(.text)
    DMA2_Stream2_IRQHandler                  0x0801165f   Thumb Code     0  startup_stm32f4xx.o(.text)
    DMA2_Stream3_IRQHandler                  0x0801165f   Thumb Code     0  startup_stm32f4xx.o(.text)
    DMA2_Stream4_IRQHandler                  0x0801165f   Thumb Code     0  startup_stm32f4xx.o(.text)
    DMA2_Stream5_IRQHandler                  0x0801165f   Thumb Code     0  startup_stm32f4xx.o(.text)
    DMA2_Stream6_IRQHandler                  0x0801165f   Thumb Code     0  startup_stm32f4xx.o(.text)
    DMA2_Stream7_IRQHandler                  0x0801165f   Thumb Code     0  startup_stm32f4xx.o(.text)
    ETH_IRQHandler                           0x0801165f   Thumb Code     0  startup_stm32f4xx.o(.text)
    ETH_WKUP_IRQHandler                      0x0801165f   Thumb Code     0  startup_stm32f4xx.o(.text)
    EXTI0_IRQHandler                         0x0801165f   Thumb Code     0  startup_stm32f4xx.o(.text)
    EXTI15_10_IRQHandler                     0x0801165f   Thumb Code     0  startup_stm32f4xx.o(.text)
    EXTI1_IRQHandler                         0x0801165f   Thumb Code     0  startup_stm32f4xx.o(.text)
    EXTI2_IRQHandler                         0x0801165f   Thumb Code     0  startup_stm32f4xx.o(.text)
    EXTI3_IRQHandler                         0x0801165f   Thumb Code     0  startup_stm32f4xx.o(.text)
    EXTI4_IRQHandler                         0x0801165f   Thumb Code     0  startup_stm32f4xx.o(.text)
    EXTI9_5_IRQHandler                       0x0801165f   Thumb Code     0  startup_stm32f4xx.o(.text)
    FLASH_IRQHandler                         0x0801165f   Thumb Code     0  startup_stm32f4xx.o(.text)
    FPU_IRQHandler                           0x0801165f   Thumb Code     0  startup_stm32f4xx.o(.text)
    FSMC_IRQHandler                          0x0801165f   Thumb Code     0  startup_stm32f4xx.o(.text)
    HASH_RNG_IRQHandler                      0x0801165f   Thumb Code     0  startup_stm32f4xx.o(.text)
    I2C1_ER_IRQHandler                       0x0801165f   Thumb Code     0  startup_stm32f4xx.o(.text)
    I2C1_EV_IRQHandler                       0x0801165f   Thumb Code     0  startup_stm32f4xx.o(.text)
    I2C2_ER_IRQHandler                       0x0801165f   Thumb Code     0  startup_stm32f4xx.o(.text)
    I2C2_EV_IRQHandler                       0x0801165f   Thumb Code     0  startup_stm32f4xx.o(.text)
    I2C3_ER_IRQHandler                       0x0801165f   Thumb Code     0  startup_stm32f4xx.o(.text)
    I2C3_EV_IRQHandler                       0x0801165f   Thumb Code     0  startup_stm32f4xx.o(.text)
    OTG_FS_IRQHandler                        0x0801165f   Thumb Code     0  startup_stm32f4xx.o(.text)
    OTG_FS_WKUP_IRQHandler                   0x0801165f   Thumb Code     0  startup_stm32f4xx.o(.text)
    OTG_HS_EP1_IN_IRQHandler                 0x0801165f   Thumb Code     0  startup_stm32f4xx.o(.text)
    OTG_HS_EP1_OUT_IRQHandler                0x0801165f   Thumb Code     0  startup_stm32f4xx.o(.text)
    OTG_HS_IRQHandler                        0x0801165f   Thumb Code     0  startup_stm32f4xx.o(.text)
    OTG_HS_WKUP_IRQHandler                   0x0801165f   Thumb Code     0  startup_stm32f4xx.o(.text)
    PVD_IRQHandler                           0x0801165f   Thumb Code     0  startup_stm32f4xx.o(.text)
    RCC_IRQHandler                           0x0801165f   Thumb Code     0  startup_stm32f4xx.o(.text)
    RTC_Alarm_IRQHandler                     0x0801165f   Thumb Code     0  startup_stm32f4xx.o(.text)
    RTC_WKUP_IRQHandler                      0x0801165f   Thumb Code     0  startup_stm32f4xx.o(.text)
    SDIO_IRQHandler                          0x0801165f   Thumb Code     0  startup_stm32f4xx.o(.text)
    SPI1_IRQHandler                          0x0801165f   Thumb Code     0  startup_stm32f4xx.o(.text)
    SPI2_IRQHandler                          0x0801165f   Thumb Code     0  startup_stm32f4xx.o(.text)
    SPI3_IRQHandler                          0x0801165f   Thumb Code     0  startup_stm32f4xx.o(.text)
    TAMP_STAMP_IRQHandler                    0x0801165f   Thumb Code     0  startup_stm32f4xx.o(.text)
    TIM1_BRK_TIM9_IRQHandler                 0x0801165f   Thumb Code     0  startup_stm32f4xx.o(.text)
    TIM1_CC_IRQHandler                       0x0801165f   Thumb Code     0  startup_stm32f4xx.o(.text)
    TIM1_TRG_COM_TIM11_IRQHandler            0x0801165f   Thumb Code     0  startup_stm32f4xx.o(.text)
    TIM1_UP_TIM10_IRQHandler                 0x0801165f   Thumb Code     0  startup_stm32f4xx.o(.text)
    TIM2_IRQHandler                          0x0801165f   Thumb Code     0  startup_stm32f4xx.o(.text)
    TIM4_IRQHandler                          0x0801165f   Thumb Code     0  startup_stm32f4xx.o(.text)
    TIM6_DAC_IRQHandler                      0x0801165f   Thumb Code     0  startup_stm32f4xx.o(.text)
    TIM7_IRQHandler                          0x0801165f   Thumb Code     0  startup_stm32f4xx.o(.text)
    TIM8_BRK_TIM12_IRQHandler                0x0801165f   Thumb Code     0  startup_stm32f4xx.o(.text)
    TIM8_CC_IRQHandler                       0x0801165f   Thumb Code     0  startup_stm32f4xx.o(.text)
    TIM8_TRG_COM_TIM14_IRQHandler            0x0801165f   Thumb Code     0  startup_stm32f4xx.o(.text)
    TIM8_UP_TIM13_IRQHandler                 0x0801165f   Thumb Code     0  startup_stm32f4xx.o(.text)
    UART4_IRQHandler                         0x0801165f   Thumb Code     0  startup_stm32f4xx.o(.text)
    UART5_IRQHandler                         0x0801165f   Thumb Code     0  startup_stm32f4xx.o(.text)
    USART6_IRQHandler                        0x0801165f   Thumb Code     0  startup_stm32f4xx.o(.text)
    WWDG_IRQHandler                          0x0801165f   Thumb Code     0  startup_stm32f4xx.o(.text)
    __user_initial_stackheap                 0x08011661   Thumb Code     0  startup_stm32f4xx.o(.text)
    rt_system_tick_init                      0x08011685   Thumb Code     2  clock.o(.text)
    rt_tick_get                              0x08011687   Thumb Code     6  clock.o(.text)
    rt_tick_set                              0x0801168d   Thumb Code    22  clock.o(.text)
    rt_tick_increase                         0x080116a3   Thumb Code    42  clock.o(.text)
    rt_tick_from_millisecond                 0x080116cd   Thumb Code    22  clock.o(.text)
    rt_device_find                           0x080116e9   Thumb Code    76  device.o(.text)
    rt_device_register                       0x08011735   Thumb Code    50  device.o(.text)
    rt_device_unregister                     0x08011767   Thumb Code    44  device.o(.text)
    rt_device_init_all                       0x08011793   Thumb Code     4  device.o(.text)
    rt_device_init                           0x08011797   Thumb Code    82  device.o(.text)
    rt_device_open                           0x080117e9   Thumb Code   172  device.o(.text)
    rt_device_close                          0x08011895   Thumb Code    86  device.o(.text)
    rt_device_read                           0x080118eb   Thumb Code    90  device.o(.text)
    rt_device_write                          0x08011945   Thumb Code    90  device.o(.text)
    rt_device_control                        0x0801199f   Thumb Code    60  device.o(.text)
    rt_device_set_rx_indicate                0x080119db   Thumb Code    44  device.o(.text)
    rt_device_set_tx_complete                0x08011a07   Thumb Code    44  device.o(.text)
    rt_thread_idle_sethook                   0x08011ad9   Thumb Code     6  idle.o(.text)
    rt_thread_idle_excute                    0x08011adf   Thumb Code   176  idle.o(.text)
    rt_thread_idle_init                      0x08011ba3   Thumb Code    38  idle.o(.text)
    rt_sem_init                              0x08011ced   Thumb Code    64  ipc.o(.text)
    rt_sem_detach                            0x08011d2d   Thumb Code    52  ipc.o(.text)
    rt_sem_create                            0x08011d61   Thumb Code   102  ipc.o(.text)
    rt_sem_delete                            0x08011dc7   Thumb Code   114  ipc.o(.text)
    rt_sem_take                              0x08011e39   Thumb Code   324  ipc.o(.text)
    rt_sem_trytake                           0x08011f7d   Thumb Code    14  ipc.o(.text)
    rt_sem_release                           0x08011f8b   Thumb Code    80  ipc.o(.text)
    rt_sem_control                           0x08011fdb   Thumb Code    86  ipc.o(.text)
    rt_mutex_init                            0x08012031   Thumb Code    76  ipc.o(.text)
    rt_mutex_detach                          0x0801207d   Thumb Code    54  ipc.o(.text)
    rt_mutex_create                          0x080120b3   Thumb Code   328  ipc.o(.text)
    rt_mutex_delete                          0x080121fb   Thumb Code   124  ipc.o(.text)
    rt_mutex_take                            0x08012277   Thumb Code   408  ipc.o(.text)
    rt_mutex_release                         0x0801240f   Thumb Code   314  ipc.o(.text)
    rt_mutex_control                         0x08012549   Thumb Code     8  ipc.o(.text)
    rt_event_init                            0x08012551   Thumb Code    66  ipc.o(.text)
    rt_event_detach                          0x08012593   Thumb Code    56  ipc.o(.text)
    rt_event_create                          0x080125cb   Thumb Code   164  ipc.o(.text)
    rt_event_delete                          0x0801266f   Thumb Code   124  ipc.o(.text)
    rt_event_send                            0x080126eb   Thumb Code   232  ipc.o(.text)
    rt_event_recv                            0x080127d3   Thumb Code   450  ipc.o(.text)
    rt_event_control                         0x08012995   Thumb Code    86  ipc.o(.text)
    rt_mb_init                               0x080129eb   Thumb Code    96  ipc.o(.text)
    rt_mb_detach                             0x08012a4b   Thumb Code   120  ipc.o(.text)
    rt_mb_create                             0x08012ac3   Thumb Code   148  ipc.o(.text)
    rt_mb_delete                             0x08012b57   Thumb Code   138  ipc.o(.text)
    rt_mb_send_wait                          0x08012be1   Thumb Code   444  ipc.o(.text)
    rt_mb_send                               0x08012d9d   Thumb Code    18  ipc.o(.text)
    rt_mb_recv                               0x08012daf   Thumb Code   506  ipc.o(.text)
    rt_mb_control                            0x08012fa9   Thumb Code    98  ipc.o(.text)
    rt_mq_init                               0x0801300b   Thumb Code   138  ipc.o(.text)
    rt_mq_detach                             0x08013095   Thumb Code    56  ipc.o(.text)
    rt_mq_delete                             0x080130cd   Thumb Code   126  ipc.o(.text)
    rt_mq_create                             0x0801314b   Thumb Code   190  ipc.o(.text)
    rt_mq_send                               0x08013209   Thumb Code   254  ipc.o(.text)
    rt_mq_urgent                             0x08013307   Thumb Code   342  ipc.o(.text)
    rt_mq_recv                               0x0801345d   Thumb Code   530  ipc.o(.text)
    rt_mq_control                            0x0801366f   Thumb Code   116  ipc.o(.text)
    rt_interrupt_enter                       0x08013739   Thumb Code    30  irq.o(.text)
    rt_interrupt_leave                       0x08013757   Thumb Code    30  irq.o(.text)
    rt_interrupt_get_nest                    0x08013775   Thumb Code     6  irq.o(.text)
    rt_get_errno                             0x08013781   Thumb Code    32  kservice.o(.text)
    rt_set_errno                             0x080137a1   Thumb Code    36  kservice.o(.text)
    _rt_errno                                0x080137c5   Thumb Code    30  kservice.o(.text)
    rt_memset                                0x080137e3   Thumb Code    72  kservice.o(.text)
    rt_memcpy                                0x0801382b   Thumb Code   124  kservice.o(.text)
    rt_memmove                               0x080138a7   Thumb Code    66  kservice.o(.text)
    rt_memcmp                                0x080138e9   Thumb Code    38  kservice.o(.text)
    rt_strlen                                0x0801390f   Thumb Code    18  kservice.o(.text)
    rt_strstr                                0x08013921   Thumb Code    58  kservice.o(.text)
    rt_strcasecmp                            0x0801395b   Thumb Code    48  kservice.o(.text)
    rt_strncpy                               0x0801398b   Thumb Code    52  kservice.o(.text)
    rt_strncmp                               0x080139bf   Thumb Code    40  kservice.o(.text)
    rt_strcmp                                0x080139e7   Thumb Code    28  kservice.o(.text)
    rt_strdup                                0x08013a03   Thumb Code    40  kservice.o(.text)
    rt_hw_console_output                     0x08013a2b   Thumb Code     2  kservice.o(.text)
    rt_vsnprintf                             0x08013be3   Thumb Code   800  kservice.o(.text)
    rt_kprintf                               0x08013f03   Thumb Code    96  kservice.o(.text)
    rt_show_version                          0x08013f63   Thumb Code    38  kservice.o(.text)
    rt_snprintf                              0x08013f89   Thumb Code    38  kservice.o(.text)
    rt_vsprintf                              0x08013faf   Thumb Code    22  kservice.o(.text)
    rt_sprintf                               0x08013fc5   Thumb Code    34  kservice.o(.text)
    rt_console_get_device                    0x08013fe7   Thumb Code     6  kservice.o(.text)
    rt_console_set_device                    0x08013fed   Thumb Code    48  kservice.o(.text)
    rt_malloc_align                          0x0801401d   Thumb Code    66  kservice.o(.text)
    rt_free_align                            0x0801405f   Thumb Code    16  kservice.o(.text)
    __rt_ffs                                 0x0801406f   Thumb Code    70  kservice.o(.text)
    rt_malloc_sethook                        0x08014151   Thumb Code     6  mem.o(.text)
    rt_free_sethook                          0x08014157   Thumb Code     6  mem.o(.text)
    rt_system_heap_init                      0x08014233   Thumb Code   222  mem.o(.text)
    rt_malloc                                0x08014311   Thumb Code   940  mem.o(.text)
    rt_free                                  0x080146bd   Thumb Code   346  mem.o(.text)
    rt_realloc                               0x08014817   Thumb Code   330  mem.o(.text)
    rt_calloc                                0x08014961   Thumb Code    98  mem.o(.text)
    rt_memory_info                           0x080149c3   Thumb Code    26  mem.o(.text)
    list_mem                                 0x080149dd   Thumb Code    34  mem.o(.text)
    rt_mp_alloc_sethook                      0x08014b05   Thumb Code     6  mempool.o(.text)
    rt_mp_free_sethook                       0x08014b0b   Thumb Code     6  mempool.o(.text)
    rt_mp_init                               0x08014b11   Thumb Code   146  mempool.o(.text)
    rt_mp_detach                             0x08014ba3   Thumb Code    94  mempool.o(.text)
    rt_mp_create                             0x08014c01   Thumb Code   192  mempool.o(.text)
    rt_mp_delete                             0x08014cc1   Thumb Code   162  mempool.o(.text)
    rt_mp_alloc                              0x08014d63   Thumb Code   250  mempool.o(.text)
    rt_mp_free                               0x08014e5d   Thumb Code    98  mempool.o(.text)
    rt_object_attach_sethook                 0x08014f69   Thumb Code     6  object.o(.text)
    rt_object_detach_sethook                 0x08014f6f   Thumb Code     6  object.o(.text)
    rt_object_trytake_sethook                0x08014f75   Thumb Code     6  object.o(.text)
    rt_object_take_sethook                   0x08014f7b   Thumb Code     6  object.o(.text)
    rt_object_put_sethook                    0x08014f81   Thumb Code     6  object.o(.text)
    rt_system_object_init                    0x08014f87   Thumb Code     2  object.o(.text)
    rt_object_get_information                0x08014f89   Thumb Code    10  object.o(.text)
    rt_object_init                           0x08014f93   Thumb Code    76  object.o(.text)
    rt_object_detach                         0x08014fdf   Thumb Code    74  object.o(.text)
    rt_object_allocate                       0x08015029   Thumb Code   150  object.o(.text)
    rt_object_delete                         0x080150bf   Thumb Code   120  object.o(.text)
    rt_object_is_systemobject                0x08015137   Thumb Code    52  object.o(.text)
    rt_object_find                           0x0801516b   Thumb Code   138  object.o(.text)
    rt_scheduler_sethook                     0x080152a9   Thumb Code     6  scheduler.o(.text)
    rt_system_scheduler_init                 0x08015313   Thumb Code    56  scheduler.o(.text)
    rt_system_scheduler_start                0x0801534b   Thumb Code    36  scheduler.o(.text)
    rt_schedule                              0x0801536f   Thumb Code   134  scheduler.o(.text)
    rt_schedule_insert_thread                0x080153f5   Thumb Code   100  scheduler.o(.text)
    rt_schedule_remove_thread                0x08015459   Thumb Code   112  scheduler.o(.text)
    rt_enter_critical                        0x080154c9   Thumb Code    28  scheduler.o(.text)
    rt_exit_critical                         0x080154e5   Thumb Code    54  scheduler.o(.text)
    rt_critical_level                        0x0801551b   Thumb Code     8  scheduler.o(.text)
    rt_thread_timeout                        0x08015649   Thumb Code   102  thread.o(.text)
    rt_thread_init                           0x0801574d   Thumb Code   110  thread.o(.text)
    rt_thread_self                           0x080157bb   Thumb Code     6  thread.o(.text)
    rt_thread_resume                         0x080157c1   Thumb Code    96  thread.o(.text)
    rt_thread_startup                        0x08015821   Thumb Code   116  thread.o(.text)
    rt_thread_detach                         0x08015895   Thumb Code    90  thread.o(.text)
    rt_thread_create                         0x080158ef   Thumb Code    80  thread.o(.text)
    rt_thread_delete                         0x0801593f   Thumb Code    82  thread.o(.text)
    rt_thread_yield                          0x08015991   Thumb Code   314  thread.o(.text)
    rt_thread_suspend                        0x08015acb   Thumb Code    98  thread.o(.text)
    rt_thread_sleep                          0x08015b2d   Thumb Code   100  thread.o(.text)
    rt_thread_delay                          0x08015b91   Thumb Code    12  thread.o(.text)
    rt_thread_control                        0x08015b9d   Thumb Code   146  thread.o(.text)
    rt_thread_find                           0x08015c2f   Thumb Code    76  thread.o(.text)
    rt_timer_timeout_sethook                 0x08015c9f   Thumb Code     6  timer.o(.text)
    rt_timer_init                            0x08015d31   Thumb Code    76  timer.o(.text)
    rt_timer_detach                          0x08015d7d   Thumb Code    62  timer.o(.text)
    rt_timer_create                          0x08015dbb   Thumb Code    54  timer.o(.text)
    rt_timer_delete                          0x08015df1   Thumb Code    64  timer.o(.text)
    rt_timer_start                           0x08015e31   Thumb Code   342  timer.o(.text)
    rt_timer_stop                            0x08015f87   Thumb Code    98  timer.o(.text)
    rt_timer_control                         0x08015fe9   Thumb Code    94  timer.o(.text)
    rt_timer_check                           0x08016047   Thumb Code   282  timer.o(.text)
    rt_timer_next_timeout_tick               0x08016161   Thumb Code    10  timer.o(.text)
    rt_system_timer_init                     0x0801616b   Thumb Code    24  timer.o(.text)
    rt_system_timer_thread_init              0x08016183   Thumb Code     2  timer.o(.text)
    rt_hw_stack_init                         0x080161a1   Thumb Code    74  cpuport.o(.text)
    rt_hw_exception_install                  0x080161eb   Thumb Code     6  cpuport.o(.text)
    rt_hw_hard_fault_exception               0x080161f1   Thumb Code   112  cpuport.o(.text)
    rt_hw_cpu_shutdown                       0x08016261   Thumb Code    36  cpuport.o(.text)
    rt_hw_interrupt_disable                  0x08016361   Thumb Code     8  context_rvds.o(.text)
    rt_hw_interrupt_enable                   0x08016369   Thumb Code     6  context_rvds.o(.text)
    rt_hw_context_switch                     0x0801636f   Thumb Code    32  context_rvds.o(.text)
    rt_hw_context_switch_interrupt           0x0801636f   Thumb Code     0  context_rvds.o(.text)
    PendSV_Handler                           0x0801638f   Thumb Code   108  context_rvds.o(.text)
    rt_hw_context_switch_to                  0x080163fb   Thumb Code    70  context_rvds.o(.text)
    rt_hw_interrupt_thread_switch            0x08016441   Thumb Code     4  context_rvds.o(.text)
    HardFault_Handler                        0x08016445   Thumb Code    20  context_rvds.o(.text)
    dfs_init                                 0x08016471   Thumb Code    46  dfs.o(.text)
    dfs_lock                                 0x0801649f   Thumb Code    46  dfs.o(.text)
    dfs_unlock                               0x080164cd   Thumb Code    10  dfs.o(.text)
    fd_new                                   0x080164d7   Thumb Code    62  dfs.o(.text)
    fd_get                                   0x08016515   Thumb Code    58  dfs.o(.text)
    fd_put                                   0x0801654f   Thumb Code    64  dfs.o(.text)
    dfs_normalize_path                       0x0801658f   Thumb Code   370  dfs.o(.text)
    fd_is_open                               0x08016701   Thumb Code   148  dfs.o(.text)
    dfs_subdir                               0x08016795   Thumb Code    56  dfs.o(.text)
    dfs_register                             0x0801686d   Thumb Code    76  dfs_fs.o(.text)
    dfs_filesystem_lookup                    0x080168b9   Thumb Code   132  dfs_fs.o(.text)
    dfs_filesystem_get_mounted_path          0x0801693d   Thumb Code    52  dfs_fs.o(.text)
    dfs_filesystem_get_partition             0x08016971   Thumb Code   242  dfs_fs.o(.text)
    dfs_mount                                0x08016a63   Thumb Code   400  dfs_fs.o(.text)
    dfs_unmount                              0x08016bf3   Thumb Code   320  dfs_fs.o(.text)
    dfs_mkfs                                 0x08016d33   Thumb Code   138  dfs_fs.o(.text)
    dfs_statfs                               0x08016dbd   Thumb Code    40  dfs_fs.o(.text)
    mkfs                                     0x08016de5   Thumb Code    16  dfs_fs.o(.text)
    df                                       0x08016df5   Thumb Code    60  dfs_fs.o(.text)
    dfs_file_open                            0x08016eb1   Thumb Code   220  dfs_file.o(.text)
    dfs_file_close                           0x08016f8d   Thumb Code    56  dfs_file.o(.text)
    dfs_file_ioctl                           0x08016fc5   Thumb Code    52  dfs_file.o(.text)
    dfs_file_read                            0x08016ff9   Thumb Code    68  dfs_file.o(.text)
    dfs_file_getdents                        0x0801703d   Thumb Code    54  dfs_file.o(.text)
    dfs_file_unlink                          0x08017073   Thumb Code   148  dfs_file.o(.text)
    dfs_file_write                           0x08017107   Thumb Code    48  dfs_file.o(.text)
    dfs_file_flush                           0x08017137   Thumb Code    36  dfs_file.o(.text)
    dfs_file_lseek                           0x0801715b   Thumb Code    54  dfs_file.o(.text)
    dfs_file_stat                            0x08017191   Thumb Code   188  dfs_file.o(.text)
    dfs_file_rename                          0x0801724d   Thumb Code   176  dfs_file.o(.text)
    ls                                       0x080172fd   Thumb Code   212  dfs_file.o(.text)
    rm                                       0x080173d1   Thumb Code    24  dfs_file.o(.text)
    cat                                      0x080173e9   Thumb Code    80  dfs_file.o(.text)
    copy                                     0x080175ff   Thumb Code   634  dfs_file.o(.text)
    open                                     0x08017879   Thumb Code    94  dfs_posix.o(.text)
    close                                    0x080178d7   Thumb Code    68  dfs_posix.o(.text)
    read                                     0x0801791b   Thumb Code    80  dfs_posix.o(.text)
    write                                    0x0801796b   Thumb Code    80  dfs_posix.o(.text)
    lseek                                    0x080179bb   Thumb Code   138  dfs_posix.o(.text)
    rename                                   0x08017a45   Thumb Code    36  dfs_posix.o(.text)
    unlink                                   0x08017a69   Thumb Code    32  dfs_posix.o(.text)
    stat                                     0x08017a89   Thumb Code    36  dfs_posix.o(.text)
    fstat                                    0x08017aad   Thumb Code    88  dfs_posix.o(.text)
    statfs                                   0x08017b05   Thumb Code    36  dfs_posix.o(.text)
    mkdir                                    0x08017b29   Thumb Code    92  dfs_posix.o(.text)
    rmdir                                    0x08017b85   Thumb Code    32  dfs_posix.o(.text)
    opendir                                  0x08017ba5   Thumb Code   130  dfs_posix.o(.text)
    readdir                                  0x08017c27   Thumb Code   132  dfs_posix.o(.text)
    telldir                                  0x08017cab   Thumb Code    50  dfs_posix.o(.text)
    seekdir                                  0x08017cdd   Thumb Code    58  dfs_posix.o(.text)
    rewinddir                                0x08017d17   Thumb Code    56  dfs_posix.o(.text)
    closedir                                 0x08017d4f   Thumb Code    74  dfs_posix.o(.text)
    getcwd                                   0x08017d99   Thumb Code    16  dfs_posix.o(.text)
    dfs_elm_mount                            0x08017e51   Thumb Code   224  dfs_elm.o(.text)
    dfs_elm_unmount                          0x08017f31   Thumb Code    94  dfs_elm.o(.text)
    dfs_elm_mkfs                             0x08017f8f   Thumb Code   168  dfs_elm.o(.text)
    dfs_elm_statfs                           0x08018037   Thumb Code   156  dfs_elm.o(.text)
    dfs_elm_open                             0x080180d3   Thumb Code   512  dfs_elm.o(.text)
    dfs_elm_close                            0x080182d3   Thumb Code   122  dfs_elm.o(.text)
    dfs_elm_ioctl                            0x0801834d   Thumb Code     8  dfs_elm.o(.text)
    dfs_elm_read                             0x08018355   Thumb Code    92  dfs_elm.o(.text)
    dfs_elm_write                            0x080183b1   Thumb Code    96  dfs_elm.o(.text)
    dfs_elm_flush                            0x08018411   Thumb Code    56  dfs_elm.o(.text)
    dfs_elm_lseek                            0x08018449   Thumb Code   152  dfs_elm.o(.text)
    dfs_elm_getdents                         0x080184e1   Thumb Code   228  dfs_elm.o(.text)
    dfs_elm_unlink                           0x080185c5   Thumb Code    86  dfs_elm.o(.text)
    dfs_elm_rename                           0x0801861b   Thumb Code    94  dfs_elm.o(.text)
    dfs_elm_stat                             0x08018679   Thumb Code   320  dfs_elm.o(.text)
    elm_init                                 0x080187b9   Thumb Code    12  dfs_elm.o(.text)
    disk_initialize                          0x080187c5   Thumb Code     6  dfs_elm.o(.text)
    disk_status                              0x080187cb   Thumb Code     6  dfs_elm.o(.text)
    disk_read                                0x080187d1   Thumb Code    46  dfs_elm.o(.text)
    disk_write                               0x080187ff   Thumb Code    46  dfs_elm.o(.text)
    disk_ioctl                               0x0801882d   Thumb Code   156  dfs_elm.o(.text)
    get_fattime                              0x080188c9   Thumb Code     4  dfs_elm.o(.text)
    ff_cre_syncobj                           0x080188cd   Thumb Code    40  dfs_elm.o(.text)
    ff_del_syncobj                           0x080188f5   Thumb Code    16  dfs_elm.o(.text)
    ff_req_grant                             0x08018905   Thumb Code    24  dfs_elm.o(.text)
    ff_rel_grant                             0x0801891d   Thumb Code    12  dfs_elm.o(.text)
    clust2sect                               0x08018ae1   Thumb Code    26  ff.o(.text)
    get_fat                                  0x08018afb   Thumb Code   280  ff.o(.text)
    put_fat                                  0x08018c13   Thumb Code   336  ff.o(.text)
    f_mount                                  0x080197d1   Thumb Code    70  ff.o(.text)
    f_open                                   0x08019817   Thumb Code   296  ff.o(.text)
    f_read                                   0x0801993f   Thumb Code   624  ff.o(.text)
    f_write                                  0x08019baf   Thumb Code   670  ff.o(.text)
    f_sync                                   0x08019e4d   Thumb Code   158  ff.o(.text)
    f_close                                  0x08019eeb   Thumb Code    22  ff.o(.text)
    f_lseek                                  0x08019f01   Thumb Code   912  ff.o(.text)
    f_opendir                                0x0801a291   Thumb Code   106  ff.o(.text)
    f_readdir                                0x0801a2fb   Thumb Code    96  ff.o(.text)
    f_seekdir                                0x0801a35b   Thumb Code    60  ff.o(.text)
    f_stat                                   0x0801a397   Thumb Code    66  ff.o(.text)
    f_getfree                                0x0801a3d9   Thumb Code   262  ff.o(.text)
    f_truncate                               0x0801a4df   Thumb Code   164  ff.o(.text)
    f_unlink                                 0x0801a583   Thumb Code   174  ff.o(.text)
    f_mkdir                                  0x0801a631   Thumb Code   334  ff.o(.text)
    f_chmod                                  0x0801a77f   Thumb Code    92  ff.o(.text)
    f_utime                                  0x0801a7db   Thumb Code    82  ff.o(.text)
    f_rename                                 0x0801a82d   Thumb Code   274  ff.o(.text)
    f_mkfs                                   0x0801a93f   Thumb Code  1238  ff.o(.text)
    elm_get_vol                              0x0801ae15   Thumb Code    32  ff.o(.text)
    dfs_romfs_mount                          0x0801ae41   Thumb Code    22  dfs_romfs.o(.text)
    dfs_romfs_unmount                        0x0801ae57   Thumb Code     6  dfs_romfs.o(.text)
    dfs_romfs_ioctl                          0x0801ae5d   Thumb Code     8  dfs_romfs.o(.text)
    dfs_romfs_lookup                         0x0801ae65   Thumb Code   216  dfs_romfs.o(.text)
    dfs_romfs_read                           0x0801af3d   Thumb Code    98  dfs_romfs.o(.text)
    dfs_romfs_lseek                          0x0801af9f   Thumb Code    20  dfs_romfs.o(.text)
    dfs_romfs_close                          0x0801afb3   Thumb Code     8  dfs_romfs.o(.text)
    dfs_romfs_open                           0x0801afbb   Thumb Code    92  dfs_romfs.o(.text)
    dfs_romfs_stat                           0x0801b017   Thumb Code    88  dfs_romfs.o(.text)
    dfs_romfs_getdents                       0x0801b06f   Thumb Code   176  dfs_romfs.o(.text)
    dfs_romfs_init                           0x0801b11f   Thumb Code    12  dfs_romfs.o(.text)
    rt_i2c_bus_device_register               0x0801b191   Thumb Code    66  i2c_core.o(.text)
    rt_i2c_bus_device_find                   0x0801b1d3   Thumb Code    38  i2c_core.o(.text)
    rt_i2c_transfer                          0x0801b1f9   Thumb Code   126  i2c_core.o(.text)
    rt_i2c_master_send                       0x0801b277   Thumb Code    66  i2c_core.o(.text)
    rt_i2c_master_recv                       0x0801b2b9   Thumb Code   108  i2c_core.o(.text)
    rt_i2c_core_init                         0x0801b325   Thumb Code    14  i2c_core.o(.text)
    rt_i2c_bus_device_device_init            0x0801b5a7   Thumb Code    80  i2c_dev.o(.text)
    rt_spi_bus_register                      0x0801b6a5   Thumb Code    50  spi_core.o(.text)
    rt_spi_bus_attach_device                 0x0801b6d7   Thumb Code    74  spi_core.o(.text)
    rt_spi_configure                         0x0801b721   Thumb Code   114  spi_core.o(.text)
    rt_spi_send_then_send                    0x0801b793   Thumb Code   276  spi_core.o(.text)
    rt_spi_send_then_recv                    0x0801b8a7   Thumb Code   276  spi_core.o(.text)
    rt_spi_transfer                          0x0801b9bb   Thumb Code   234  spi_core.o(.text)
    rt_spi_transfer_message                  0x0801baa5   Thumb Code   278  spi_core.o(.text)
    rt_spi_take_bus                          0x0801bbbb   Thumb Code   178  spi_core.o(.text)
    rt_spi_release_bus                       0x0801bc6d   Thumb Code   132  spi_core.o(.text)
    rt_spi_take                              0x0801bcf1   Thumb Code   120  spi_core.o(.text)
    rt_spi_release                           0x0801bd69   Thumb Code   120  spi_core.o(.text)
    rt_spi_bus_device_init                   0x0801bf2b   Thumb Code    76  spi_dev.o(.text)
    rt_spidev_device_init                    0x0801c091   Thumb Code    76  spi_dev.o(.text)
    w25qxx_page_write                        0x0801c241   Thumb Code   204  spi_flash_w25qxx.o(.text)
    w25qxx_init                              0x0801c427   Thumb Code   882  spi_flash_w25qxx.o(.text)
    finsh_set_device                         0x0801c801   Thumb Code   136  shell.o(.text)
    finsh_get_device                         0x0801c889   Thumb Code    46  shell.o(.text)
    finsh_set_echo                           0x0801c8b7   Thumb Code    48  shell.o(.text)
    finsh_get_echo                           0x0801c8e7   Thumb Code    50  shell.o(.text)
    finsh_run_line                           0x0801c935   Thumb Code   150  shell.o(.text)
    finsh_thread_entry                       0x0801ca87   Thumb Code  1656  shell.o(.text)
    finsh_system_function_init               0x0801d0ff   Thumb Code    10  shell.o(.text)
    finsh_system_var_init                    0x0801d109   Thumb Code    10  shell.o(.text)
    finsh_system_init                        0x0801d113   Thumb Code   122  shell.o(.text)
    hello                                    0x0801d1f5   Thumb Code    12  cmd.o(.text)
    version                                  0x0801d201   Thumb Code    10  cmd.o(.text)
    list_thread                              0x0801d2b7   Thumb Code    10  cmd.o(.text)
    list_sem                                 0x0801d355   Thumb Code    12  cmd.o(.text)
    list_event                               0x0801d3c1   Thumb Code    12  cmd.o(.text)
    list_mutex                               0x0801d40f   Thumb Code    12  cmd.o(.text)
    list_mailbox                             0x0801d493   Thumb Code    12  cmd.o(.text)
    list_msgqueue                            0x0801d50b   Thumb Code    12  cmd.o(.text)
    list_mempool                             0x0801d57d   Thumb Code    12  cmd.o(.text)
    list_timer                               0x0801d9c1   Thumb Code    10  cmd.o(.text)
    list_device                              0x0801da1d   Thumb Code    12  cmd.o(.text)
    list                                     0x0801da29   Thumb Code   126  cmd.o(.text)
    list_prefix                              0x0801dae9   Thumb Code   434  cmd.o(.text)
    finsh_compiler_run                       0x0801f553   Thumb Code    88  finsh_compiler.o(.text)
    finsh_error_init                         0x0801f5bd   Thumb Code     8  finsh_error.o(.text)
    finsh_error_set                          0x0801f5c5   Thumb Code    10  finsh_error.o(.text)
    finsh_errno                              0x0801f5cf   Thumb Code     6  finsh_error.o(.text)
    finsh_error_string                       0x0801f5d5   Thumb Code    10  finsh_error.o(.text)
    finsh_heap_init                          0x0801f5e9   Thumb Code    36  finsh_heap.o(.text)
    finsh_heap_free                          0x0801f70d   Thumb Code    34  finsh_heap.o(.text)
    finsh_heap_allocate                      0x0801f77d   Thumb Code   106  finsh_heap.o(.text)
    finsh_init                               0x0801f7f9   Thumb Code    30  finsh_init.o(.text)
    finsh_stack_bottom                       0x0801f817   Thumb Code     6  finsh_init.o(.text)
    finsh_flush                              0x0801f81d   Thumb Code    22  finsh_init.o(.text)
    finsh_reset                              0x0801f833   Thumb Code    24  finsh_init.o(.text)
    finsh_node_init                          0x0801f851   Thumb Code    16  finsh_node.o(.text)
    finsh_node_allocate                      0x0801f861   Thumb Code    56  finsh_node.o(.text)
    finsh_node_new_id                        0x0801f899   Thumb Code   118  finsh_node.o(.text)
    finsh_node_new_char                      0x0801f90f   Thumb Code    30  finsh_node.o(.text)
    finsh_node_new_int                       0x0801f92d   Thumb Code    30  finsh_node.o(.text)
    finsh_node_new_long                      0x0801f94b   Thumb Code    30  finsh_node.o(.text)
    finsh_node_new_string                    0x0801f969   Thumb Code    74  finsh_node.o(.text)
    finsh_node_new_ptr                       0x0801f9b3   Thumb Code    30  finsh_node.o(.text)
    OP_no_op                                 0x0801f9d5   Thumb Code     2  finsh_ops.o(.text)
    OP_add_byte                              0x0801f9d7   Thumb Code    42  finsh_ops.o(.text)
    OP_add_word                              0x0801fa01   Thumb Code    44  finsh_ops.o(.text)
    OP_add_dword                             0x0801fa2d   Thumb Code    42  finsh_ops.o(.text)
    OP_sub_byte                              0x0801fa57   Thumb Code    42  finsh_ops.o(.text)
    OP_sub_word                              0x0801fa81   Thumb Code    44  finsh_ops.o(.text)
    OP_sub_dword                             0x0801faad   Thumb Code    42  finsh_ops.o(.text)
    OP_div_byte                              0x0801fad7   Thumb Code    44  finsh_ops.o(.text)
    OP_div_word                              0x0801fb03   Thumb Code    46  finsh_ops.o(.text)
    OP_div_dword                             0x0801fb31   Thumb Code    44  finsh_ops.o(.text)
    OP_mod_byte                              0x0801fb5d   Thumb Code    48  finsh_ops.o(.text)
    OP_mod_word                              0x0801fb8d   Thumb Code    48  finsh_ops.o(.text)
    OP_mod_dword                             0x0801fbbd   Thumb Code    48  finsh_ops.o(.text)
    OP_mul_byte                              0x0801fbed   Thumb Code    44  finsh_ops.o(.text)
    OP_mul_word                              0x0801fc19   Thumb Code    46  finsh_ops.o(.text)
    OP_mul_dword                             0x0801fc47   Thumb Code    42  finsh_ops.o(.text)
    OP_and_byte                              0x0801fc71   Thumb Code    42  finsh_ops.o(.text)
    OP_and_word                              0x0801fc9b   Thumb Code    42  finsh_ops.o(.text)
    OP_and_dword                             0x0801fcc5   Thumb Code    42  finsh_ops.o(.text)
    OP_or_byte                               0x0801fcef   Thumb Code    42  finsh_ops.o(.text)
    OP_or_word                               0x0801fd19   Thumb Code    42  finsh_ops.o(.text)
    OP_or_dword                              0x0801fd43   Thumb Code    42  finsh_ops.o(.text)
    OP_xor_byte                              0x0801fd6d   Thumb Code    42  finsh_ops.o(.text)
    OP_xor_word                              0x0801fd97   Thumb Code    46  finsh_ops.o(.text)
    OP_xor_dword                             0x0801fdc5   Thumb Code    42  finsh_ops.o(.text)
    OP_bw_byte                               0x0801fdef   Thumb Code    20  finsh_ops.o(.text)
    OP_bw_word                               0x0801fe03   Thumb Code    20  finsh_ops.o(.text)
    OP_bw_dword                              0x0801fe17   Thumb Code    20  finsh_ops.o(.text)
    OP_shl_byte                              0x0801fe2b   Thumb Code    42  finsh_ops.o(.text)
    OP_shl_word                              0x0801fe55   Thumb Code    44  finsh_ops.o(.text)
    OP_shl_dword                             0x0801fe81   Thumb Code    42  finsh_ops.o(.text)
    OP_shr_byte                              0x0801feab   Thumb Code    42  finsh_ops.o(.text)
    OP_shr_word                              0x0801fed5   Thumb Code    42  finsh_ops.o(.text)
    OP_shr_dword                             0x0801feff   Thumb Code    42  finsh_ops.o(.text)
    OP_ld_byte                               0x0801ff29   Thumb Code    34  finsh_ops.o(.text)
    OP_ld_word                               0x0801ff4b   Thumb Code    46  finsh_ops.o(.text)
    OP_ld_dword                              0x0801ff79   Thumb Code    64  finsh_ops.o(.text)
    OP_ld_value_byte                         0x0801ffb9   Thumb Code    66  finsh_ops.o(.text)
    OP_ld_value_byte_stack                   0x0801fffb   Thumb Code    20  finsh_ops.o(.text)
    OP_ld_value_word                         0x0802000f   Thumb Code    66  finsh_ops.o(.text)
    OP_ld_value_word_stack                   0x08020051   Thumb Code    20  finsh_ops.o(.text)
    OP_ld_value_dword                        0x08020065   Thumb Code    66  finsh_ops.o(.text)
    OP_ld_value_dword_stack                  0x080200a7   Thumb Code    20  finsh_ops.o(.text)
    OP_st_byte                               0x080200bb   Thumb Code    30  finsh_ops.o(.text)
    OP_st_word                               0x080200d9   Thumb Code    30  finsh_ops.o(.text)
    OP_st_dword                              0x080200f7   Thumb Code    30  finsh_ops.o(.text)
    OP_pop                                   0x08020115   Thumb Code    12  finsh_ops.o(.text)
    OP_call                                  0x08020121   Thumb Code   906  finsh_ops.o(.text)
    finsh_parser_run                         0x08020d41   Thumb Code   220  finsh_parser.o(.text)
    finsh_parser_init                        0x08020e1d   Thumb Code    16  finsh_parser.o(.text)
    finsh_var_init                           0x08020e2d   Thumb Code    14  finsh_var.o(.text)
    finsh_var_insert                         0x08020e3b   Thumb Code   114  finsh_var.o(.text)
    finsh_var_delete                         0x08020ead   Thumb Code    68  finsh_var.o(.text)
    finsh_var_lookup                         0x08020ef1   Thumb Code    58  finsh_var.o(.text)
    finsh_sysvar_append                      0x08020f2b   Thumb Code    62  finsh_var.o(.text)
    finsh_sysvar_lookup                      0x08020f69   Thumb Code    78  finsh_var.o(.text)
    finsh_vm_run                             0x08020fc9   Thumb Code    62  finsh_vm.o(.text)
    finsh_syscall_append                     0x08021007   Thumb Code    54  finsh_vm.o(.text)
    finsh_syscall_lookup                     0x0802103d   Thumb Code    78  finsh_vm.o(.text)
    finsh_token_init                         0x080210ad   Thumb Code    20  finsh_token.o(.text)
    token_get_string                         0x0802149d   Thumb Code   120  finsh_token.o(.text)
    finsh_token_token                        0x080216d5   Thumb Code    24  finsh_token.o(.text)
    finsh_token_get_token                    0x080216ed   Thumb Code    20  finsh_token.o(.text)
    rt_components_board_init                 0x08021711   Thumb Code    20  components.o(.text)
    rt_components_init                       0x08021725   Thumb Code    20  components.o(.text)
    __aeabi_ldivmod                          0x08021745   Thumb Code     0  llsdiv.o(.text)
    _ll_sdiv                                 0x08021745   Thumb Code    72  llsdiv.o(.text)
    atoi                                     0x0802178d   Thumb Code    26  atoi.o(.text)
    memcmp                                   0x080217a7   Thumb Code    88  memcmp.o(.text)
    strrchr                                  0x080217ff   Thumb Code    22  strrchr.o(.text)
    strlen                                   0x08021815   Thumb Code    62  strlen.o(.text)
    strncmp                                  0x08021853   Thumb Code   150  strncmp.o(.text)
    __aeabi_memcpy                           0x080218e9   Thumb Code     0  rt_memcpy_v6.o(.text)
    __rt_memcpy                              0x080218e9   Thumb Code   138  rt_memcpy_v6.o(.text)
    _memcpy_lastbytes                        0x0802194f   Thumb Code     0  rt_memcpy_v6.o(.text)
    __aeabi_memcpy4                          0x08021973   Thumb Code     0  rt_memcpy_w.o(.text)
    __aeabi_memcpy8                          0x08021973   Thumb Code     0  rt_memcpy_w.o(.text)
    __rt_memcpy_w                            0x08021973   Thumb Code   100  rt_memcpy_w.o(.text)
    _memcpy_lastbytes_aligned                0x080219bb   Thumb Code     0  rt_memcpy_w.o(.text)
    __aeabi_memset                           0x080219d7   Thumb Code    16  aeabi_memset.o(.text)
    __aeabi_memclr                           0x080219e7   Thumb Code     0  rt_memclr.o(.text)
    __rt_memclr                              0x080219e7   Thumb Code    68  rt_memclr.o(.text)
    _memset                                  0x080219eb   Thumb Code     0  rt_memclr.o(.text)
    __aeabi_memclr4                          0x08021a2b   Thumb Code     0  rt_memclr_w.o(.text)
    __aeabi_memclr8                          0x08021a2b   Thumb Code     0  rt_memclr_w.o(.text)
    __rt_memclr_w                            0x08021a2b   Thumb Code    78  rt_memclr_w.o(.text)
    _memset_w                                0x08021a2f   Thumb Code     0  rt_memclr_w.o(.text)
    strncpy                                  0x08021a79   Thumb Code    86  strncpy.o(.text)
    strcmp                                   0x08021ad1   Thumb Code   128  strcmpv7m.o(.text)
    mktime                                   0x08021b87   Thumb Code   356  mktime.o(.text)
    __use_two_region_memory                  0x08021cf5   Thumb Code     2  heapauxi.o(.text)
    __rt_heap_escrow$2region                 0x08021cf7   Thumb Code     2  heapauxi.o(.text)
    __rt_heap_expand$2region                 0x08021cf9   Thumb Code     2  heapauxi.o(.text)
    __aeabi_errno_addr                       0x08021cfd   Thumb Code     8  rt_errno_addr_intlibspace.o(.text)
    __errno$intlibspace                      0x08021cfd   Thumb Code     0  rt_errno_addr_intlibspace.o(.text)
    __rt_errno_addr$intlibspace              0x08021cfd   Thumb Code     0  rt_errno_addr_intlibspace.o(.text)
    __aeabi_uldivmod                         0x08021d05   Thumb Code     0  lludivv7m.o(.text)
    _ll_udiv                                 0x08021d05   Thumb Code   238  lludivv7m.o(.text)
    __read_errno                             0x08021df3   Thumb Code    10  _rserrno.o(.text)
    __set_errno                              0x08021dfd   Thumb Code    12  _rserrno.o(.text)
    strtol                                   0x08021e09   Thumb Code   112  strtol.o(.text)
    __user_libspace                          0x08021e79   Thumb Code     8  libspace.o(.text)
    __user_perproc_libspace                  0x08021e79   Thumb Code     0  libspace.o(.text)
    __user_perthread_libspace                0x08021e79   Thumb Code     0  libspace.o(.text)
    __rt_ctype_table                         0x08021e81   Thumb Code    16  rt_ctype_table.o(.text)
    _strtoul                                 0x08021e91   Thumb Code   158  _strtoul.o(.text)
    __user_setup_stackheap                   0x08021f2f   Thumb Code    74  sys_stackheap_outer.o(.text)
    __rt_locale                              0x08021f79   Thumb Code     8  rt_locale_intlibspace.o(.text)
    _chval                                   0x08021f81   Thumb Code    28  _chval.o(.text)
    exit                                     0x08021f9d   Thumb Code    12  exit.o(.text)
    _sys_exit                                0x08021fa9   Thumb Code     8  sys_exit.o(.text)
    __I$use$semihosting                      0x08021fb5   Thumb Code     0  use_no_semi.o(.text)
    __use_no_semihosting_swi                 0x08021fb5   Thumb Code     2  use_no_semi.o(.text)
    __ARM_fpclassify                         0x08021fb7   Thumb Code    48  fpclassify.o(i.__ARM_fpclassify)
    __semihosting_library_function           0x08021fb7   Thumb Code     0  indicate_semi.o(.text)
    __ARM_fpclassifyf                        0x08021fe7   Thumb Code    38  fpclassifyf.o(i.__ARM_fpclassifyf)
    __hardfp_asin                            0x08022011   Thumb Code   770  asin.o(i.__hardfp_asin)
    __hardfp_asinf                           0x08022381   Thumb Code   250  asinf.o(i.__hardfp_asinf)
    __hardfp_atan                            0x080224a9   Thumb Code   632  atan.o(i.__hardfp_atan)
    __hardfp_atan2                           0x08022789   Thumb Code   426  atan2.o(i.__hardfp_atan2)
    __hardfp_atan2f                          0x08022979   Thumb Code   498  atan2f.o(i.__hardfp_atan2f)
    __hardfp_cos                             0x08022bc9   Thumb Code   200  cos.o(i.__hardfp_cos)
    __hardfp_sin                             0x08022ca1   Thumb Code   200  sin.o(i.__hardfp_sin)
    __hardfp_sqrt                            0x08022d79   Thumb Code   122  sqrt.o(i.__hardfp_sqrt)
    __ieee754_rem_pio2                       0x08022df9   Thumb Code   938  rred.o(i.__ieee754_rem_pio2)
    __kernel_cos                             0x08023231   Thumb Code   322  cos_i.o(i.__kernel_cos)
    __kernel_poly                            0x080233a1   Thumb Code   248  poly.o(i.__kernel_poly)
    __kernel_sin                             0x08023499   Thumb Code   280  sin_i.o(i.__kernel_sin)
    __mathlib_dbl_underflow                  0x080235c9   Thumb Code    24  dunder.o(i.__mathlib_dbl_underflow)
    __mathlib_flt_underflow                  0x080235e9   Thumb Code    10  funder.o(i.__mathlib_flt_underflow)
    atan                                     0x080235f9   Thumb Code    16  atan.o(i.atan)
    fabs                                     0x08023609   Thumb Code    24  fabs.o(i.fabs)
    sqrt                                     0x08023621   Thumb Code   110  sqrt.o(i.sqrt)
    sqrtf                                    0x0802368f   Thumb Code    62  sqrtf.o(i.sqrtf)
    _get_lc_ctype                            0x080236cd   Thumb Code    44  lc_ctype_c.o(locale$$code)
    __aeabi_dneg                             0x080236f9   Thumb Code     0  basic.o(x$fpl$basic)
    _dneg                                    0x080236f9   Thumb Code     6  basic.o(x$fpl$basic)
    __aeabi_fneg                             0x080236ff   Thumb Code     0  basic.o(x$fpl$basic)
    _fneg                                    0x080236ff   Thumb Code     6  basic.o(x$fpl$basic)
    _dabs                                    0x08023705   Thumb Code     6  basic.o(x$fpl$basic)
    _fabs                                    0x0802370b   Thumb Code     6  basic.o(x$fpl$basic)
    __aeabi_d2f                              0x08023711   Thumb Code     0  d2f.o(x$fpl$d2f)
    _d2f                                     0x08023711   Thumb Code    98  d2f.o(x$fpl$d2f)
    __aeabi_dadd                             0x08023775   Thumb Code     0  daddsub_clz.o(x$fpl$dadd)
    _dadd                                    0x08023775   Thumb Code   332  daddsub_clz.o(x$fpl$dadd)
    __fpl_dcmp_Inf                           0x080238c5   Thumb Code    24  dcmpi.o(x$fpl$dcmpinf)
    __aeabi_ddiv                             0x080238dd   Thumb Code     0  ddiv.o(x$fpl$ddiv)
    _ddiv                                    0x080238dd   Thumb Code   552  ddiv.o(x$fpl$ddiv)
    __aeabi_d2iz                             0x08023b8d   Thumb Code     0  dfix.o(x$fpl$dfix)
    _dfix                                    0x08023b8d   Thumb Code    94  dfix.o(x$fpl$dfix)
    __aeabi_d2uiz                            0x08023bed   Thumb Code     0  dfixu.o(x$fpl$dfixu)
    _dfixu                                   0x08023bed   Thumb Code    90  dfixu.o(x$fpl$dfixu)
    __aeabi_i2d                              0x08023c47   Thumb Code     0  dflt_clz.o(x$fpl$dflt)
    _dflt                                    0x08023c47   Thumb Code    46  dflt_clz.o(x$fpl$dflt)
    __aeabi_ui2d                             0x08023c75   Thumb Code     0  dflt_clz.o(x$fpl$dfltu)
    _dfltu                                   0x08023c75   Thumb Code    38  dflt_clz.o(x$fpl$dfltu)
    __aeabi_cdcmple                          0x08023c9d   Thumb Code     0  dleqf.o(x$fpl$dleqf)
    _dcmple                                  0x08023c9d   Thumb Code   120  dleqf.o(x$fpl$dleqf)
    __fpl_dcmple_InfNaN                      0x08023cff   Thumb Code     0  dleqf.o(x$fpl$dleqf)
    __aeabi_dmul                             0x08023d15   Thumb Code     0  dmul.o(x$fpl$dmul)
    _dmul                                    0x08023d15   Thumb Code   332  dmul.o(x$fpl$dmul)
    __fpl_dnaninf                            0x08023e69   Thumb Code   156  dnaninf.o(x$fpl$dnaninf)
    __fpl_dretinf                            0x08023f05   Thumb Code    12  dretinf.o(x$fpl$dretinf)
    __aeabi_cdrcmple                         0x08023f11   Thumb Code     0  drleqf.o(x$fpl$drleqf)
    _drcmple                                 0x08023f11   Thumb Code   108  drleqf.o(x$fpl$drleqf)
    __aeabi_drsub                            0x08023f7d   Thumb Code     0  daddsub_clz.o(x$fpl$drsb)
    _drsb                                    0x08023f7d   Thumb Code    22  daddsub_clz.o(x$fpl$drsb)
    _dsqrt                                   0x08023f95   Thumb Code   404  dsqrt_umaal.o(x$fpl$dsqrt)
    __aeabi_dsub                             0x0802412d   Thumb Code     0  daddsub_clz.o(x$fpl$dsub)
    _dsub                                    0x0802412d   Thumb Code   464  daddsub_clz.o(x$fpl$dsub)
    __aeabi_f2d                              0x08024301   Thumb Code     0  f2d.o(x$fpl$f2d)
    _f2d                                     0x08024301   Thumb Code    86  f2d.o(x$fpl$f2d)
    __fpl_fnaninf                            0x08024357   Thumb Code   140  fnaninf.o(x$fpl$fnaninf)
    _fp_init                                 0x080243e3   Thumb Code    10  fpinit.o(x$fpl$fpinit)
    __fplib_config_fpu_vfp                   0x080243eb   Thumb Code     0  fpinit.o(x$fpl$fpinit)
    __fplib_config_pureend_doubles           0x080243eb   Thumb Code     0  fpinit.o(x$fpl$fpinit)
    __fpl_fretinf                            0x080243ed   Thumb Code    10  fretinf.o(x$fpl$fretinf)
    __I$use$fp                               0x080243f6   Number         0  usenofp.o(x$fpl$usenofp)
    __vsym_pwmcon_name                       0x080243f6   Data           7  application.o(.constdata)
    __vsym_pwmcon_desc                       0x080243fd   Data          11  application.o(.constdata)
    __fsym_get_fps_name                      0x08024408   Data           8  ahrs.o(.constdata)
    __fsym_get_fps_desc                      0x08024410   Data          13  ahrs.o(.constdata)
    __fsym_angle_fix_name                    0x0802441d   Data          10  ahrs.o(.constdata)
    __fsym_angle_fix_desc                    0x08024427   Data          16  ahrs.o(.constdata)
    __fsym_save_name                         0x080244bc   Data           5  settings.o(.constdata)
    __fsym_save_desc                         0x080244c1   Data          16  settings.o(.constdata)
    __fsym_get_pid_name                      0x080244d1   Data           8  settings.o(.constdata)
    __fsym_get_pid_desc                      0x080244d9   Data          22  settings.o(.constdata)
    __fsym_set_pitch_name                    0x080244ef   Data          10  settings.o(.constdata)
    __fsym_set_pitch_desc                    0x080244f9   Data          30  settings.o(.constdata)
    __fsym_set_roll_name                     0x08024517   Data           9  settings.o(.constdata)
    __fsym_set_roll_desc                     0x08024520   Data          29  settings.o(.constdata)
    __fsym_set_yaw_name                      0x0802453d   Data           8  settings.o(.constdata)
    __fsym_set_yaw_desc                      0x08024545   Data          28  settings.o(.constdata)
    __fsym_set_height_name                   0x08024561   Data          11  settings.o(.constdata)
    __fsym_set_height_desc                   0x0802456c   Data          28  settings.o(.constdata)
    __fsym_set_pwm_name                      0x08024588   Data           8  settings.o(.constdata)
    __fsym_set_pwm_desc                      0x08024590   Data          20  settings.o(.constdata)
    __fsym_out_ahrs_name                     0x080245a4   Data           9  settings.o(.constdata)
    __fsym_out_ahrs_desc                     0x080245ad   Data          16  settings.o(.constdata)
    __fsym_out_pwm_name                      0x080245bd   Data           8  settings.o(.constdata)
    __fsym_out_pwm_desc                      0x080245c5   Data          15  settings.o(.constdata)
    __fsym_device_test_name                  0x080245d4   Data          12  settings.o(.constdata)
    __fsym_device_test_desc                  0x080245e0   Data          24  settings.o(.constdata)
    hw                                       0x08024600   Data          12  inv_mpu.o(.constdata)
    reg                                      0x0802460c   Data          27  inv_mpu.o(.constdata)
    test                                     0x08024628   Data          40  inv_mpu.o(.constdata)
    __vsym_h_name                            0x08025246   Data           2  sonar.o(.constdata)
    __vsym_h_desc                            0x08025248   Data          13  sonar.o(.constdata)
    __lowest_bit_bitmap                      0x080254ea   Data         256  kservice.o(.constdata)
    __fsym_list_mem_name                     0x0802560c   Data           9  mem.o(.constdata)
    __fsym_list_mem_desc                     0x08025615   Data          30  mem.o(.constdata)
    __fsym_mkfs_name                         0x0802589f   Data           5  dfs_fs.o(.constdata)
    __fsym_mkfs_desc                         0x080258a4   Data          19  dfs_fs.o(.constdata)
    __fsym_df_name                           0x080258b7   Data           3  dfs_fs.o(.constdata)
    __fsym_df_desc                           0x080258ba   Data          14  dfs_fs.o(.constdata)
    __fsym_ls_name                           0x080258fb   Data           3  dfs_file.o(.constdata)
    __fsym_ls_desc                           0x080258fe   Data          24  dfs_file.o(.constdata)
    __fsym_rm_name                           0x08025916   Data           3  dfs_file.o(.constdata)
    __fsym_rm_desc                           0x08025919   Data          28  dfs_file.o(.constdata)
    __fsym_cat_name                          0x08025935   Data           4  dfs_file.o(.constdata)
    __fsym_cat_desc                          0x08025939   Data          11  dfs_file.o(.constdata)
    __fsym_copy_name                         0x08025944   Data           5  dfs_file.o(.constdata)
    __fsym_copy_desc                         0x08025949   Data          17  dfs_file.o(.constdata)
    __fsym_mkdir_name                        0x0802595a   Data           6  dfs_posix.o(.constdata)
    __fsym_mkdir_desc                        0x08025960   Data          19  dfs_posix.o(.constdata)
    __fsym_hello_name                        0x08025d4c   Data           6  cmd.o(.constdata)
    __fsym_hello_desc                        0x08025d52   Data          16  cmd.o(.constdata)
    __fsym_version_name                      0x08025d62   Data           8  cmd.o(.constdata)
    __fsym_version_desc                      0x08025d6a   Data          35  cmd.o(.constdata)
    __fsym_list_thread_name                  0x08025d8d   Data          12  cmd.o(.constdata)
    __fsym_list_thread_desc                  0x08025d99   Data          12  cmd.o(.constdata)
    __fsym_list_sem_name                     0x08025da5   Data           9  cmd.o(.constdata)
    __fsym_list_sem_desc                     0x08025dae   Data          25  cmd.o(.constdata)
    __fsym_list_event_name                   0x08025dc7   Data          11  cmd.o(.constdata)
    __fsym_list_event_desc                   0x08025dd2   Data          21  cmd.o(.constdata)
    __fsym_list_mutex_name                   0x08025de7   Data          11  cmd.o(.constdata)
    __fsym_list_mutex_desc                   0x08025df2   Data          21  cmd.o(.constdata)
    __fsym_list_mailbox_name                 0x08025e07   Data          13  cmd.o(.constdata)
    __fsym_list_mailbox_desc                 0x08025e14   Data          24  cmd.o(.constdata)
    __fsym_list_msgqueue_name                0x08025e2c   Data          14  cmd.o(.constdata)
    __fsym_list_msgqueue_desc                0x08025e3a   Data          29  cmd.o(.constdata)
    __fsym_list_mempool_name                 0x08025e57   Data          13  cmd.o(.constdata)
    __fsym_list_mempool_desc                 0x08025e64   Data          27  cmd.o(.constdata)
    __fsym_list_timer_name                   0x08025e7f   Data          11  cmd.o(.constdata)
    __fsym_list_timer_desc                   0x08025e8a   Data          21  cmd.o(.constdata)
    __fsym_list_device_name                  0x08025e9f   Data          12  cmd.o(.constdata)
    __fsym_list_device_desc                  0x08025eab   Data          22  cmd.o(.constdata)
    __fsym_list_name                         0x08025ec1   Data           5  cmd.o(.constdata)
    __fsym_list_desc                         0x08025ec6   Data          26  cmd.o(.constdata)
    __vsym_dummy_name                        0x08025ee0   Data           6  cmd.o(.constdata)
    __vsym_dummy_desc                        0x08025ee6   Data          25  cmd.o(.constdata)
    op_table                                 0x08025f4c   Data         196  finsh_ops.o(.constdata)
    _monlen                                  0x080260a0   Data          12  _monlen.o(.constdata)
    __mathlib_zero                           0x08026178   Data           8  qnan.o(.constdata)
    __rt_init_rti_start                      0x080266d0   Data           4  components.o(.rti_fn.0)
    __rt_init_rti_board_end                  0x080266d4   Data           4  components.o(.rti_fn.1.post)
    __rt_init_dfs_init                       0x080266d8   Data           4  dfs.o(.rti_fn.3)
    __rt_init_rt_i2c_core_init               0x080266dc   Data           4  i2c_core.o(.rti_fn.3)
    __rt_init_finsh_system_init              0x080266e0   Data           4  shell.o(.rti_fn.3)
    __rt_init_elm_init                       0x080266e4   Data           4  dfs_elm.o(.rti_fn.4)
    __rt_init_dfs_romfs_init                 0x080266e8   Data           4  dfs_romfs.o(.rti_fn.4)
    __rt_init_rti_end                        0x080266ec   Data           4  components.o(.rti_fn.7)
    FSymTab$$Base                            0x080266f0   Number         0  ahrs.o(FSymTab)
    __fsym_get_fps                           0x080266f0   Data          12  ahrs.o(FSymTab)
    __fsym_angle_fix                         0x080266fc   Data          12  ahrs.o(FSymTab)
    __fsym_save                              0x08026708   Data          12  settings.o(FSymTab)
    __fsym_get_pid                           0x08026714   Data          12  settings.o(FSymTab)
    __fsym_set_pitch                         0x08026720   Data          12  settings.o(FSymTab)
    __fsym_set_roll                          0x0802672c   Data          12  settings.o(FSymTab)
    __fsym_set_yaw                           0x08026738   Data          12  settings.o(FSymTab)
    __fsym_set_height                        0x08026744   Data          12  settings.o(FSymTab)
    __fsym_set_pwm                           0x08026750   Data          12  settings.o(FSymTab)
    __fsym_out_ahrs                          0x0802675c   Data          12  settings.o(FSymTab)
    __fsym_out_pwm                           0x08026768   Data          12  settings.o(FSymTab)
    __fsym_device_test                       0x08026774   Data          12  settings.o(FSymTab)
    __fsym_list_mem                          0x08026780   Data          12  mem.o(FSymTab)
    __fsym_mkfs                              0x0802678c   Data          12  dfs_fs.o(FSymTab)
    __fsym_df                                0x08026798   Data          12  dfs_fs.o(FSymTab)
    __fsym_ls                                0x080267a4   Data          12  dfs_file.o(FSymTab)
    __fsym_rm                                0x080267b0   Data          12  dfs_file.o(FSymTab)
    __fsym_cat                               0x080267bc   Data          12  dfs_file.o(FSymTab)
    __fsym_copy                              0x080267c8   Data          12  dfs_file.o(FSymTab)
    __fsym_mkdir                             0x080267d4   Data          12  dfs_posix.o(FSymTab)
    __fsym_hello                             0x080267e0   Data          12  cmd.o(FSymTab)
    __fsym_version                           0x080267ec   Data          12  cmd.o(FSymTab)
    __fsym_list_thread                       0x080267f8   Data          12  cmd.o(FSymTab)
    __fsym_list_sem                          0x08026804   Data          12  cmd.o(FSymTab)
    __fsym_list_event                        0x08026810   Data          12  cmd.o(FSymTab)
    __fsym_list_mutex                        0x0802681c   Data          12  cmd.o(FSymTab)
    __fsym_list_mailbox                      0x08026828   Data          12  cmd.o(FSymTab)
    __fsym_list_msgqueue                     0x08026834   Data          12  cmd.o(FSymTab)
    __fsym_list_mempool                      0x08026840   Data          12  cmd.o(FSymTab)
    __fsym_list_timer                        0x0802684c   Data          12  cmd.o(FSymTab)
    __fsym_list_device                       0x08026858   Data          12  cmd.o(FSymTab)
    __fsym_list                              0x08026864   Data          12  cmd.o(FSymTab)
    FSymTab$$Limit                           0x08026870   Number         0  cmd.o(FSymTab)
    Region$$Table$$Base                      0x08026870   Number         0  anon$$obj.o(Region$$Table)
    Region$$Table$$Limit                     0x08026890   Number         0  anon$$obj.o(Region$$Table)
    VSymTab$$Base                            0x08026890   Number         0  application.o(VSymTab)
    __vsym_pwmcon                            0x08026890   Data          16  application.o(VSymTab)
    __vsym_h                                 0x080268a0   Data          16  sonar.o(VSymTab)
    __vsym_dummy                             0x080268b0   Data          16  cmd.o(VSymTab)
    VSymTab$$Limit                           0x080268c0   Number         0  cmd.o(VSymTab)
    __ctype                                  0x080268cd   Data           0  lc_ctype_c.o(locale$$data)
    led_period                               0x20000000   Data           4  application.o(.data)
    balence                                  0x20000004   Data           1  application.o(.data)
    pwmcon                                   0x20000005   Data           1  application.o(.data)
    lost_ahrs                                0x20000008   Data           4  application.o(.data)
    last_ahrs                                0x2000000c   Data           4  application.o(.data)
    en_out_pwm                               0x20000010   Data           1  application.o(.data)
    en_out_ahrs                              0x20000011   Data           1  application.o(.data)
    gyro                                     0x20000012   Data           6  application.o(.data)
    accel                                    0x20000018   Data           6  application.o(.data)
    sensors                                  0x2000001e   Data           2  application.o(.data)
    sensor_timestamp                         0x2000003c   Data           4  application.o(.data)
    more                                     0x20000040   Data           1  application.o(.data)
    Motor1                                   0x20000042   Data           2  motor.o(.data)
    Motor2                                   0x20000044   Data           2  motor.o(.data)
    Motor3                                   0x20000046   Data           2  motor.o(.data)
    Motor4                                   0x20000048   Data           2  motor.o(.data)
    Motor5                                   0x2000004a   Data           2  motor.o(.data)
    Motor6                                   0x2000004c   Data           2  motor.o(.data)
    coderinited                              0x20000050   Data           1  pwm.o(.data)
    PWM1_Time                                0x20000052   Data           2  pwm.o(.data)
    PWM2_Time                                0x20000054   Data           2  pwm.o(.data)
    PWM3_Time                                0x20000056   Data           2  pwm.o(.data)
    PWM4_Time                                0x20000058   Data           2  pwm.o(.data)
    PWM5_Time                                0x2000005a   Data           2  pwm.o(.data)
    PWM6_Time                                0x2000005c   Data           2  pwm.o(.data)
    PWM7_Time                                0x2000005e   Data           2  pwm.o(.data)
    PWM8_Time                                0x20000060   Data           2  pwm.o(.data)
    rising                                   0x20000062   Data           8  pwm.o(.data)
    predir                                   0x2000006a   Data           1  pwm.o(.data)
    count                                    0x2000006c   Data           4  pwm.o(.data)
    upcount                                  0x20000070   Data           4  pwm.o(.data)
    mpu_acc_x                                0x20000078   Data           2  ahrs.o(.data)
    mpu_acc_y                                0x2000007a   Data           2  ahrs.o(.data)
    mpu_acc_z                                0x2000007c   Data           2  ahrs.o(.data)
    mpu_gryo_pitch                           0x2000007e   Data           2  ahrs.o(.data)
    mpu_gryo_roll                            0x20000080   Data           2  ahrs.o(.data)
    mpu_gryo_yaw                             0x20000082   Data           2  ahrs.o(.data)
    curq                                     0x20000090   Data          16  ahrs.o(.data)
    exInt                                    0x200000a0   Data           4  ahrs.o(.data)
    eyInt                                    0x200000a4   Data           4  ahrs.o(.data)
    ezInt                                    0x200000a8   Data           4  ahrs.o(.data)
    p                                        0x200000b0   Data           8  ahrs.o(.data)
    r                                        0x200000b8   Data           8  ahrs.o(.data)
    cnt                                      0x200000c0   Data           4  ahrs.o(.data)
    MPU6050_Diff                             0x200000c8   Data          48  ahrs.o(.data)
    uart2                                    0x200000fc   Data          12  usart.o(.data)
    uart3                                    0x20000108   Data          12  usart.o(.data)
    uart2_debug                              0x20000114   Data           4  usart.o(.data)
    sonar_h                                  0x20000144   Data           4  sonar.o(.data)
    SystemCoreClock                          0x2000014c   Data           4  system_stm32f4xx.o(.data)
    AHBPrescTable                            0x20000150   Data          16  system_stm32f4xx.o(.data)
    rt_interrupt_nest                        0x20000178   Data           1  irq.o(.data)
    rt_object_container                      0x200001ac   Data         144  object.o(.data)
    rt_object_trytake_hook                   0x20000244   Data           4  object.o(.data)
    rt_object_take_hook                      0x20000248   Data           4  object.o(.data)
    rt_object_put_hook                       0x2000024c   Data           4  object.o(.data)
    rt_current_thread                        0x20000254   Data           4  scheduler.o(.data)
    rt_current_priority                      0x20000258   Data           1  scheduler.o(.data)
    rt_thread_ready_priority_group           0x2000025c   Data           4  scheduler.o(.data)
    rt_thread_defunct                        0x20000260   Data           8  scheduler.o(.data)
    rt_interrupt_from_thread                 0x2000027c   Data           4  cpuport.o(.data)
    rt_interrupt_to_thread                   0x20000280   Data           4  cpuport.o(.data)
    rt_thread_switch_interrupt_flag          0x20000284   Data           4  cpuport.o(.data)
    shell                                    0x200002a0   Data           4  shell.o(.data)
    _syscall_table_begin                     0x200002a4   Data           4  symbol.o(.data)
    _syscall_table_end                       0x200002a8   Data           4  symbol.o(.data)
    _sysvar_table_begin                      0x200002ac   Data           4  symbol.o(.data)
    _sysvar_table_end                        0x200002b0   Data           4  symbol.o(.data)
    finsh_compile_sp                         0x200002b8   Data           4  finsh_compiler.o(.data)
    finsh_compile_pc                         0x200002bc   Data           4  finsh_compiler.o(.data)
    global_errno                             0x200002c0   Data           1  finsh_error.o(.data)
    global_sysvar_list                       0x20000308   Data           4  finsh_var.o(.data)
    finsh_sp                                 0x2000030c   Data           4  finsh_vm.o(.data)
    finsh_pc                                 0x20000310   Data           4  finsh_vm.o(.data)
    global_syscall_list                      0x20000314   Data           4  finsh_vm.o(.data)
    p_rate_pid                               0x20000e38   Data         104  application.o(.bss)
    r_rate_pid                               0x20000ea0   Data         104  application.o(.bss)
    y_rate_pid                               0x20000f08   Data         104  application.o(.bss)
    p_angle_pid                              0x20000f70   Data         104  application.o(.bss)
    r_angle_pid                              0x20000fd8   Data         104  application.o(.bss)
    y_angle_pid                              0x20001040   Data         104  application.o(.bss)
    h_pid                                    0x200010a8   Data         104  application.o(.bss)
    pitch_ctl                                0x20001110   Data          32  application.o(.bss)
    roll_ctl                                 0x20001130   Data          32  application.o(.bss)
    yaw_ctl                                  0x20001150   Data          32  application.o(.bss)
    quat                                     0x20001170   Data          16  application.o(.bss)
    pre                                      0x20001180   Data          16  pwm.o(.bss)
    ahrs                                     0x20001190   Data          80  ahrs.o(.bss)
    angle_fix_sem                            0x200011e0   Data          32  ahrs.o(.bss)
    MPU6050_ACC_FIFO                         0x20001200   Data        1536  ahrs.o(.bss)
    MPU6050_GYR_FIFO                         0x20001800   Data        1536  ahrs.o(.bss)
    settings                                 0x20001e00   Data         176  settings.o(.bss)
    spi2_bus                                 0x20001eb0   Data         108  spi2.o(.bss)
    spi_flash                                0x20001f1c   Data          76  spi2.o(.bss)
    uart2_int_rx                             0x20001f68   Data          72  usart.o(.bss)
    uart2_device                             0x20001fb0   Data          64  usart.o(.bss)
    uart3_int_rx                             0x20001ff0   Data          72  usart.o(.bss)
    uart3_dma_tx                             0x20002038   Data         148  usart.o(.bss)
    uart3_device                             0x200020cc   Data          64  usart.o(.bss)
    rt_thread_priority_table                 0x20002640   Data         256  scheduler.o(.bss)
    filesystem_operation_table               0x20002740   Data          16  dfs.o(.bss)
    filesystem_table                         0x20002750   Data          32  dfs.o(.bss)
    fd_table                                 0x20002794   Data         128  dfs.o(.bss)
    finsh_heap                               0x20003250   Data         128  finsh_heap.o(.bss)
    global_node_table                        0x200032d0   Data         320  finsh_node.o(.bss)
    global_variable                          0x20003410   Data         192  finsh_var.o(.bss)
    finsh_vm_stack                           0x200034d0   Data         256  finsh_vm.o(.bss)
    text_segment                             0x200035d0   Data         128  finsh_vm.o(.bss)
    __libspace_start                         0x20003650   Data          96  libspace.o(.bss)
    __temporary_stack_top$libspace           0x200036b0   Data           0  libspace.o(.bss)
    Image$$RW_IRAM1$$ZI$$Limit               0x20003cb0   Number         0  anon$$obj.o ABSOLUTE



==============================================================================

Memory Map of the image

  Image Entry point : 0x08000189

  Load Region LR_IROM1 (Base: 0x08000000, Size: 0x00026ce8, Max: 0x00100000, ABSOLUTE, COMPRESSED[0x00026aa8])

    Execution Region ER_IROM1 (Base: 0x08000000, Size: 0x000269d0, Max: 0x00100000, ABSOLUTE)

    Base Addr    Size         Type   Attr      Idx    E Section Name        Object

    0x08000000   0x00000188   Data   RO         1173    RESET               startup_stm32f4xx.o
    0x08000188   0x00000008   Code   RO         1984  * !!!main             c_w.l(__main.o)
    0x08000190   0x00000034   Code   RO         2368    !!!scatter          c_w.l(__scatter.o)
    0x080001c4   0x0000005a   Code   RO         2366    !!dczerorl2         c_w.l(__dczerorl2.o)
    0x0800021e   0x00000002   PAD
    0x08000220   0x0000001c   Code   RO         2370    !!handler_zi        c_w.l(__scatter_zi.o)
    0x0800023c   0x00000002   Code   RO         2238    .ARM.Collect$$libinit$$00000000  c_w.l(libinit.o)
    0x0800023e   0x00000004   Code   RO         2245    .ARM.Collect$$libinit$$00000001  c_w.l(libinit2.o)
    0x08000242   0x00000000   Code   RO         2249    .ARM.Collect$$libinit$$00000008  c_w.l(libinit2.o)
    0x08000242   0x00000000   Code   RO         2251    .ARM.Collect$$libinit$$0000000A  c_w.l(libinit2.o)
    0x08000242   0x00000000   Code   RO         2253    .ARM.Collect$$libinit$$0000000C  c_w.l(libinit2.o)
    0x08000242   0x00000006   Code   RO         2254    .ARM.Collect$$libinit$$0000000D  c_w.l(libinit2.o)
    0x08000248   0x00000000   Code   RO         2256    .ARM.Collect$$libinit$$0000000F  c_w.l(libinit2.o)
    0x08000248   0x0000000c   Code   RO         2257    .ARM.Collect$$libinit$$00000010  c_w.l(libinit2.o)
    0x08000254   0x00000000   Code   RO         2258    .ARM.Collect$$libinit$$00000011  c_w.l(libinit2.o)
    0x08000254   0x00000000   Code   RO         2260    .ARM.Collect$$libinit$$00000013  c_w.l(libinit2.o)
    0x08000254   0x00000000   Code   RO         2262    .ARM.Collect$$libinit$$00000015  c_w.l(libinit2.o)
    0x08000254   0x00000000   Code   RO         2264    .ARM.Collect$$libinit$$00000017  c_w.l(libinit2.o)
    0x08000254   0x00000000   Code   RO         2266    .ARM.Collect$$libinit$$00000019  c_w.l(libinit2.o)
    0x08000254   0x00000000   Code   RO         2268    .ARM.Collect$$libinit$$0000001B  c_w.l(libinit2.o)
    0x08000254   0x00000000   Code   RO         2270    .ARM.Collect$$libinit$$0000001D  c_w.l(libinit2.o)
    0x08000254   0x00000000   Code   RO         2272    .ARM.Collect$$libinit$$0000001F  c_w.l(libinit2.o)
    0x08000254   0x00000000   Code   RO         2274    .ARM.Collect$$libinit$$00000021  c_w.l(libinit2.o)
    0x08000254   0x00000000   Code   RO         2276    .ARM.Collect$$libinit$$00000023  c_w.l(libinit2.o)
    0x08000254   0x00000000   Code   RO         2280    .ARM.Collect$$libinit$$0000002A  c_w.l(libinit2.o)
    0x08000254   0x00000000   Code   RO         2282    .ARM.Collect$$libinit$$0000002C  c_w.l(libinit2.o)
    0x08000254   0x00000000   Code   RO         2284    .ARM.Collect$$libinit$$0000002E  c_w.l(libinit2.o)
    0x08000254   0x00000000   Code   RO         2286    .ARM.Collect$$libinit$$00000030  c_w.l(libinit2.o)
    0x08000254   0x00000002   Code   RO         2287    .ARM.Collect$$libinit$$00000031  c_w.l(libinit2.o)
    0x08000256   0x00000002   Code   RO         2317    .ARM.Collect$$libshutdown$$00000000  c_w.l(libshutdown.o)
    0x08000258   0x00000000   Code   RO         2335    .ARM.Collect$$libshutdown$$00000003  c_w.l(libshutdown2.o)
    0x08000258   0x00000000   Code   RO         2338    .ARM.Collect$$libshutdown$$00000006  c_w.l(libshutdown2.o)
    0x08000258   0x00000000   Code   RO         2341    .ARM.Collect$$libshutdown$$00000009  c_w.l(libshutdown2.o)
    0x08000258   0x00000000   Code   RO         2343    .ARM.Collect$$libshutdown$$0000000B  c_w.l(libshutdown2.o)
    0x08000258   0x00000000   Code   RO         2346    .ARM.Collect$$libshutdown$$0000000E  c_w.l(libshutdown2.o)
    0x08000258   0x00000002   Code   RO         2347    .ARM.Collect$$libshutdown$$0000000F  c_w.l(libshutdown2.o)
    0x0800025a   0x00000000   Code   RO         2108    .ARM.Collect$$rtentry$$00000000  c_w.l(rtentry.o)
    0x0800025a   0x00000000   Code   RO         2195    .ARM.Collect$$rtentry$$00000002  c_w.l(rtentry2.o)
    0x0800025a   0x00000006   Code   RO         2207    .ARM.Collect$$rtentry$$00000004  c_w.l(rtentry4.o)
    0x08000260   0x00000000   Code   RO         2197    .ARM.Collect$$rtentry$$00000009  c_w.l(rtentry2.o)
    0x08000260   0x00000004   Code   RO         2198    .ARM.Collect$$rtentry$$0000000A  c_w.l(rtentry2.o)
    0x08000264   0x00000000   Code   RO         2200    .ARM.Collect$$rtentry$$0000000C  c_w.l(rtentry2.o)
    0x08000264   0x00000008   Code   RO         2201    .ARM.Collect$$rtentry$$0000000D  c_w.l(rtentry2.o)
    0x0800026c   0x00000002   Code   RO         2239    .ARM.Collect$$rtexit$$00000000  c_w.l(rtexit.o)
    0x0800026e   0x00000000   Code   RO         2289    .ARM.Collect$$rtexit$$00000002  c_w.l(rtexit2.o)
    0x0800026e   0x00000004   Code   RO         2290    .ARM.Collect$$rtexit$$00000003  c_w.l(rtexit2.o)
    0x08000272   0x00000006   Code   RO         2291    .ARM.Collect$$rtexit$$00000004  c_w.l(rtexit2.o)
    0x08000278   0x00001874   Code   RO            2    .text               application.o
    0x08001aec   0x000000cc   Code   RO          277    .text               startup.o
    0x08001bb8   0x0000030c   Code   RO          294    .text               motor.o
    0x08001ec4   0x00000510   Code   RO          315    .text               pid.o
    0x080023d4   0x000009ac   Code   RO          329    .text               pwm.o
    0x08002d80   0x000018a8   Code   RO          352    .text               ahrs.o
    0x08004628   0x000000b0   Code   RO          377    .text               board.o
    0x080046d8   0x0000007c   Code   RO          397    .text               hardtimer.o
    0x08004754   0x0000009c   Code   RO          413    .text               led.o
    0x080047f0   0x0000063c   Code   RO          429    .text               serial.o
    0x08004e2c   0x000018ac   Code   RO          449    .text               settings.o
    0x080066d8   0x000001d8   Code   RO          484    .text               spi2.o
    0x080068b0   0x000003ac   Code   RO          505    .text               stm32_iic.o
    0x08006c5c   0x00000040   Code   RO          521    .text               stm32f4xx_it.o
    0x08006c9c   0x0000019c   Code   RO          538    .text               usart.o
    0x08006e38   0x00001f10   Code   RO          561    .text               inv_mpu.o
    0x08008d48   0x00000d90   Code   RO          595    .text               inv_mpu_dmp_motion_driver.o
    0x08009ad8   0x00000210   Code   RO          652    .text               system_stm32f4xx.o
    0x08009ce8   0x000001ec   Code   RO          674    .text               misc.o
    0x08009ed4   0x000013cc   Code   RO          850    .text               stm32f4xx_dma.o
    0x0800b2a0   0x00000916   Code   RO          914    .text               stm32f4xx_gpio.o
    0x0800bbb6   0x00000002   PAD
    0x0800bbb8   0x00000d7c   Code   RO         1026    .text               stm32f4xx_rcc.o
    0x0800c934   0x00000bc8   Code   RO         1092    .text               stm32f4xx_spi.o
    0x0800d4fc   0x00003294   Code   RO         1124    .text               stm32f4xx_tim.o
    0x08010790   0x00000eb4   Code   RO         1140    .text               stm32f4xx_usart.o
    0x08011644   0x00000040   Code   RO         1174    .text               startup_stm32f4xx.o
    0x08011684   0x00000064   Code   RO         1178    .text               clock.o
    0x080116e8   0x000003f0   Code   RO         1192    .text               device.o
    0x08011ad8   0x00000168   Code   RO         1206    .text               idle.o
    0x08011c40   0x00001af8   Code   RO         1226    .text               ipc.o
    0x08013738   0x00000048   Code   RO         1243    .text               irq.o
    0x08013780   0x000009d0   Code   RO         1258    .text               kservice.o
    0x08014150   0x000009b4   Code   RO         1275    .text               mem.o
    0x08014b04   0x00000444   Code   RO         1294    .text               mempool.o
    0x08014f48   0x00000360   Code   RO         1312    .text               object.o
    0x080152a8   0x00000334   Code   RO         1331    .text               scheduler.o
    0x080155dc   0x000006b4   Code   RO         1352    .text               thread.o
    0x08015c90   0x00000510   Code   RO         1369    .text               timer.o
    0x080161a0   0x000001c0   Code   RO         1388    .text               cpuport.o
    0x08016360   0x00000110   Code   RO         1404    .text               context_rvds.o
    0x08016470   0x000003fc   Code   RO         1442    .text               dfs.o
    0x0801686c   0x00000644   Code   RO         1473    .text               dfs_fs.o
    0x08016eb0   0x000009c8   Code   RO         1489    .text               dfs_file.o
    0x08017878   0x00000560   Code   RO         1509    .text               dfs_posix.o
    0x08017dd8   0x00000b60   Code   RO         1525    .text               dfs_elm.o
    0x08018938   0x00002508   Code   RO         1558    .text               ff.o
    0x0801ae40   0x00000350   Code   RO         1573    .text               dfs_romfs.o
    0x0801b190   0x00000278   Code   RO         1603    .text               i2c_core.o
    0x0801b408   0x0000029c   Code   RO         1620    .text               i2c_dev.o
    0x0801b6a4   0x0000076c   Code   RO         1633    .text               spi_core.o
    0x0801be10   0x00000398   Code   RO         1646    .text               spi_dev.o
    0x0801c1a8   0x00000624   Code   RO         1659    .text               spi_flash_w25qxx.o
    0x0801c7cc   0x00000a14   Code   RO         1680    .text               shell.o
    0x0801d1e0   0x00000bc4   Code   RO         1712    .text               cmd.o
    0x0801dda4   0x00001818   Code   RO         1735    .text               finsh_compiler.o
    0x0801f5bc   0x0000002c   Code   RO         1772    .text               finsh_error.o
    0x0801f5e8   0x00000210   Code   RO         1788    .text               finsh_heap.o
    0x0801f7f8   0x00000058   Code   RO         1804    .text               finsh_init.o
    0x0801f850   0x00000184   Code   RO         1822    .text               finsh_node.o
    0x0801f9d4   0x00000adc   Code   RO         1837    .text               finsh_ops.o
    0x080204b0   0x0000097c   Code   RO         1855    .text               finsh_parser.o
    0x08020e2c   0x0000019c   Code   RO         1870    .text               finsh_var.o
    0x08020fc8   0x000000e4   Code   RO         1893    .text               finsh_vm.o
    0x080210ac   0x00000658   Code   RO         1920    .text               finsh_token.o
    0x08021704   0x00000040   Code   RO         1935    .text               components.o
    0x08021744   0x00000048   Code   RO         1954    .text               c_w.l(llsdiv.o)
    0x0802178c   0x0000001a   Code   RO         1956    .text               c_w.l(atoi.o)
    0x080217a6   0x00000058   Code   RO         1958    .text               c_w.l(memcmp.o)
    0x080217fe   0x00000016   Code   RO         1960    .text               c_w.l(strrchr.o)
    0x08021814   0x0000003e   Code   RO         1962    .text               c_w.l(strlen.o)
    0x08021852   0x00000096   Code   RO         1964    .text               c_w.l(strncmp.o)
    0x080218e8   0x0000008a   Code   RO         1966    .text               c_w.l(rt_memcpy_v6.o)
    0x08021972   0x00000064   Code   RO         1968    .text               c_w.l(rt_memcpy_w.o)
    0x080219d6   0x00000010   Code   RO         1970    .text               c_w.l(aeabi_memset.o)
    0x080219e6   0x00000044   Code   RO         1972    .text               c_w.l(rt_memclr.o)
    0x08021a2a   0x0000004e   Code   RO         1974    .text               c_w.l(rt_memclr_w.o)
    0x08021a78   0x00000056   Code   RO         1976    .text               c_w.l(strncpy.o)
    0x08021ace   0x00000002   PAD
    0x08021ad0   0x00000080   Code   RO         1978    .text               c_w.l(strcmpv7m.o)
    0x08021b50   0x000001a4   Code   RO         1980    .text               c_w.l(mktime.o)
    0x08021cf4   0x00000006   Code   RO         1982    .text               c_w.l(heapauxi.o)
    0x08021cfa   0x00000002   PAD
    0x08021cfc   0x00000008   Code   RO         2112    .text               c_w.l(rt_errno_addr_intlibspace.o)
    0x08021d04   0x000000ee   Code   RO         2114    .text               c_w.l(lludivv7m.o)
    0x08021df2   0x00000016   Code   RO         2116    .text               c_w.l(_rserrno.o)
    0x08021e08   0x00000070   Code   RO         2118    .text               c_w.l(strtol.o)
    0x08021e78   0x00000008   Code   RO         2191    .text               c_w.l(libspace.o)
    0x08021e80   0x00000010   Code   RO         2209    .text               c_w.l(rt_ctype_table.o)
    0x08021e90   0x0000009e   Code   RO         2215    .text               c_w.l(_strtoul.o)
    0x08021f2e   0x0000004a   Code   RO         2217    .text               c_w.l(sys_stackheap_outer.o)
    0x08021f78   0x00000008   Code   RO         2224    .text               c_w.l(rt_locale_intlibspace.o)
    0x08021f80   0x0000001c   Code   RO         2226    .text               c_w.l(_chval.o)
    0x08021f9c   0x0000000c   Code   RO         2231    .text               c_w.l(exit.o)
    0x08021fa8   0x0000000c   Code   RO         2305    .text               c_w.l(sys_exit.o)
    0x08021fb4   0x00000002   Code   RO         2322    .text               c_w.l(use_no_semi.o)
    0x08021fb6   0x00000000   Code   RO         2324    .text               c_w.l(indicate_semi.o)
    0x08021fb6   0x00000030   Code   RO         2159    i.__ARM_fpclassify  m_wm.l(fpclassify.o)
    0x08021fe6   0x00000026   Code   RO         2161    i.__ARM_fpclassifyf  m_wm.l(fpclassifyf.o)
    0x0802200c   0x00000004   PAD
    0x08022010   0x00000370   Code   RO         2022    i.__hardfp_asin     m_wm.l(asin.o)
    0x08022380   0x00000124   Code   RO         2036    i.__hardfp_asinf    m_wm.l(asinf.o)
    0x080224a4   0x00000004   PAD
    0x080224a8   0x000002e0   Code   RO         2134    i.__hardfp_atan     m_wm.l(atan.o)
    0x08022788   0x000001f0   Code   RO         2048    i.__hardfp_atan2    m_wm.l(atan2.o)
    0x08022978   0x0000024c   Code   RO         2060    i.__hardfp_atan2f   m_wm.l(atan2f.o)
    0x08022bc4   0x00000004   PAD
    0x08022bc8   0x000000d8   Code   RO         2072    i.__hardfp_cos      m_wm.l(cos.o)
    0x08022ca0   0x000000d8   Code   RO         2084    i.__hardfp_sin      m_wm.l(sin.o)
    0x08022d78   0x0000007a   Code   RO         2096    i.__hardfp_sqrt     m_wm.l(sqrt.o)
    0x08022df2   0x00000006   PAD
    0x08022df8   0x00000438   Code   RO         2168    i.__ieee754_rem_pio2  m_wm.l(rred.o)
    0x08023230   0x00000170   Code   RO         2148    i.__kernel_cos      m_wm.l(cos_i.o)
    0x080233a0   0x000000f8   Code   RO         2165    i.__kernel_poly     m_wm.l(poly.o)
    0x08023498   0x00000130   Code   RO         2173    i.__kernel_sin      m_wm.l(sin_i.o)
    0x080235c8   0x00000020   Code   RO         2151    i.__mathlib_dbl_underflow  m_wm.l(dunder.o)
    0x080235e8   0x00000010   Code   RO         2163    i.__mathlib_flt_underflow  m_wm.l(funder.o)
    0x080235f8   0x00000010   Code   RO         2136    i.atan              m_wm.l(atan.o)
    0x08023608   0x00000018   Code   RO         2155    i.fabs              m_wm.l(fabs.o)
    0x08023620   0x0000006e   Code   RO         2098    i.sqrt              m_wm.l(sqrt.o)
    0x0802368e   0x0000003e   Code   RO         2181    i.sqrtf             m_wm.l(sqrtf.o)
    0x080236cc   0x0000002c   Code   RO         2229    locale$$code        c_w.l(lc_ctype_c.o)
    0x080236f8   0x00000018   Code   RO         1986    x$fpl$basic         fz_wm.l(basic.o)
    0x08023710   0x00000062   Code   RO         1988    x$fpl$d2f           fz_wm.l(d2f.o)
    0x08023772   0x00000002   PAD
    0x08023774   0x00000150   Code   RO         1990    x$fpl$dadd          fz_wm.l(daddsub_clz.o)
    0x080238c4   0x00000018   Code   RO         2121    x$fpl$dcmpinf       fz_wm.l(dcmpi.o)
    0x080238dc   0x000002b0   Code   RO         1997    x$fpl$ddiv          fz_wm.l(ddiv.o)
    0x08023b8c   0x0000005e   Code   RO         2000    x$fpl$dfix          fz_wm.l(dfix.o)
    0x08023bea   0x00000002   PAD
    0x08023bec   0x0000005a   Code   RO         2004    x$fpl$dfixu         fz_wm.l(dfixu.o)
    0x08023c46   0x0000002e   Code   RO         2009    x$fpl$dflt          fz_wm.l(dflt_clz.o)
    0x08023c74   0x00000026   Code   RO         2008    x$fpl$dfltu         fz_wm.l(dflt_clz.o)
    0x08023c9a   0x00000002   PAD
    0x08023c9c   0x00000078   Code   RO         2014    x$fpl$dleqf         fz_wm.l(dleqf.o)
    0x08023d14   0x00000154   Code   RO         2016    x$fpl$dmul          fz_wm.l(dmul.o)
    0x08023e68   0x0000009c   Code   RO         2123    x$fpl$dnaninf       fz_wm.l(dnaninf.o)
    0x08023f04   0x0000000c   Code   RO         2125    x$fpl$dretinf       fz_wm.l(dretinf.o)
    0x08023f10   0x0000006c   Code   RO         2018    x$fpl$drleqf        fz_wm.l(drleqf.o)
    0x08023f7c   0x00000016   Code   RO         1991    x$fpl$drsb          fz_wm.l(daddsub_clz.o)
    0x08023f92   0x00000002   PAD
    0x08023f94   0x00000198   Code   RO         2127    x$fpl$dsqrt         fz_wm.l(dsqrt_umaal.o)
    0x0802412c   0x000001d4   Code   RO         1992    x$fpl$dsub          fz_wm.l(daddsub_clz.o)
    0x08024300   0x00000056   Code   RO         2020    x$fpl$f2d           fz_wm.l(f2d.o)
    0x08024356   0x0000008c   Code   RO         2129    x$fpl$fnaninf       fz_wm.l(fnaninf.o)
    0x080243e2   0x0000000a   Code   RO         2303    x$fpl$fpinit        fz_wm.l(fpinit.o)
    0x080243ec   0x0000000a   Code   RO         2131    x$fpl$fretinf       fz_wm.l(fretinf.o)
    0x080243f6   0x00000000   Code   RO         2133    x$fpl$usenofp       fz_wm.l(usenofp.o)
    0x080243f6   0x00000012   Data   RO            4    .constdata          application.o
    0x08024408   0x0000002f   Data   RO          354    .constdata          ahrs.o
    0x08024437   0x00000085   Data   RO          430    .constdata          serial.o
    0x080244bc   0x0000013c   Data   RO          451    .constdata          settings.o
    0x080245f8   0x00000008   Data   RO          486    .constdata          spi2.o
    0x08024600   0x00000050   Data   RO          562    .constdata          inv_mpu.o
    0x08024650   0x00000bf6   Data   RO          597    .constdata          inv_mpu_dmp_motion_driver.o
    0x08025246   0x0000000f   Data   RO          629    .constdata          sonar.o
    0x08025255   0x000000a8   Data   RO         1193    .constdata          device.o
    0x080252fd   0x00000016   Data   RO         1208    .constdata          idle.o
    0x08025313   0x000001d7   Data   RO         1227    .constdata          ipc.o
    0x080254ea   0x00000122   Data   RO         1260    .constdata          kservice.o
    0x0802560c   0x0000006d   Data   RO         1277    .constdata          mem.o
    0x08025679   0x0000003e   Data   RO         1295    .constdata          mempool.o
    0x080256b7   0x0000005e   Data   RO         1313    .constdata          object.o
    0x08025715   0x0000004e   Data   RO         1333    .constdata          scheduler.o
    0x08025763   0x000000aa   Data   RO         1353    .constdata          thread.o
    0x0802580d   0x0000005c   Data   RO         1370    .constdata          timer.o
    0x08025869   0x00000013   Data   RO         1389    .constdata          cpuport.o
    0x0802587c   0x00000023   Data   RO         1444    .constdata          dfs.o
    0x0802589f   0x0000005c   Data   RO         1474    .constdata          dfs_fs.o
    0x080258fb   0x0000005f   Data   RO         1491    .constdata          dfs_file.o
    0x0802595a   0x00000019   Data   RO         1510    .constdata          dfs_posix.o
    0x08025973   0x00000001   PAD
    0x08025974   0x000000b9   Data   RO         1526    .constdata          dfs_elm.o
    0x08025a2d   0x00000001   PAD
    0x08025a2e   0x0000002c   Data   RO         1559    .constdata          ff.o
    0x08025a5a   0x00000002   PAD
    0x08025a5c   0x00000066   Data   RO         1574    .constdata          dfs_romfs.o
    0x08025ac2   0x00000013   Data   RO         1605    .constdata          i2c_core.o
    0x08025ad5   0x00000072   Data   RO         1621    .constdata          i2c_dev.o
    0x08025b47   0x000000a3   Data   RO         1634    .constdata          spi_core.o
    0x08025bea   0x000000d9   Data   RO         1647    .constdata          spi_dev.o
    0x08025cc3   0x00000027   Data   RO         1661    .constdata          spi_flash_w25qxx.o
    0x08025cea   0x00000060   Data   RO         1682    .constdata          shell.o
    0x08025d4a   0x00000002   PAD
    0x08025d4c   0x00000200   Data   RO         1713    .constdata          cmd.o
    0x08025f4c   0x000000c4   Data   RO         1838    .constdata          finsh_ops.o
    0x08026010   0x00000040   Data   RO         1921    .constdata          finsh_token.o
    0x08026050   0x00000050   Data   RO         2025    .constdata          m_wm.l(asin.o)
    0x080260a0   0x0000000c   Data   RO         2120    .constdata          c_w.l(_monlen.o)
    0x080260ac   0x00000004   PAD
    0x080260b0   0x00000098   Data   RO         2137    .constdata          m_wm.l(atan.o)
    0x08026148   0x00000030   Data   RO         2149    .constdata          m_wm.l(cos_i.o)
    0x08026178   0x00000008   Data   RO         2167    .constdata          m_wm.l(qnan.o)
    0x08026180   0x000000c8   Data   RO         2170    .constdata          m_wm.l(rred.o)
    0x08026248   0x00000028   Data   RO         2174    .constdata          m_wm.l(sin_i.o)
    0x08026270   0x0000004d   Data   RO          563    .conststring        inv_mpu.o
    0x080262bd   0x00000003   PAD
    0x080262c0   0x000000ed   Data   RO         1278    .conststring        mem.o
    0x080263ad   0x00000003   PAD
    0x080263b0   0x00000048   Data   RO         1527    .conststring        dfs_elm.o
    0x080263f8   0x00000004   Data   RO         1575    .conststring        dfs_romfs.o
    0x080263fc   0x0000019d   Data   RO         1714    .conststring        cmd.o
    0x08026599   0x00000003   PAD
    0x0802659c   0x000000f3   Data   RO         1773    .conststring        finsh_error.o
    0x0802668f   0x00000001   PAD
    0x08026690   0x0000003e   Data   RO         1922    .conststring        finsh_token.o
    0x080266ce   0x00000002   PAD
    0x080266d0   0x00000004   Data   RO         1936    .rti_fn.0           components.o
    0x080266d4   0x00000004   Data   RO         1937    .rti_fn.1.post      components.o
    0x080266d8   0x00000004   Data   RO         1445    .rti_fn.3           dfs.o
    0x080266dc   0x00000004   Data   RO         1606    .rti_fn.3           i2c_core.o
    0x080266e0   0x00000004   Data   RO         1684    .rti_fn.3           shell.o
    0x080266e4   0x00000004   Data   RO         1529    .rti_fn.4           dfs_elm.o
    0x080266e8   0x00000004   Data   RO         1576    .rti_fn.4           dfs_romfs.o
    0x080266ec   0x00000004   Data   RO         1938    .rti_fn.7           components.o
    0x080266f0   0x00000018   Data   RO          356    FSymTab             ahrs.o
    0x08026708   0x00000078   Data   RO          452    FSymTab             settings.o
    0x08026780   0x0000000c   Data   RO         1280    FSymTab             mem.o
    0x0802678c   0x00000018   Data   RO         1475    FSymTab             dfs_fs.o
    0x080267a4   0x00000030   Data   RO         1492    FSymTab             dfs_file.o
    0x080267d4   0x0000000c   Data   RO         1511    FSymTab             dfs_posix.o
    0x080267e0   0x00000090   Data   RO         1716    FSymTab             cmd.o
    0x08026870   0x00000020   Data   RO         2364    Region$$Table       anon$$obj.o
    0x08026890   0x00000010   Data   RO            6    VSymTab             application.o
    0x080268a0   0x00000010   Data   RO          631    VSymTab             sonar.o
    0x080268b0   0x00000010   Data   RO         1717    VSymTab             cmd.o
    0x080268c0   0x00000110   Data   RO         2228    locale$$data        c_w.l(lc_ctype_c.o)


    Execution Region RW_IRAM1 (Base: 0x20000000, Size: 0x00003cb0, Max: 0x00020000, ABSOLUTE, COMPRESSED[0x000000d8])

    Base Addr    Size         Type   Attr      Idx    E Section Name        Object

    0x20000000   0x00000041   Data   RW            5    .data               application.o
    0x20000041   0x00000001   PAD
    0x20000042   0x0000000c   Data   RW          295    .data               motor.o
    0x2000004e   0x00000002   PAD
    0x20000050   0x00000024   Data   RW          331    .data               pwm.o
    0x20000074   0x00000004   PAD
    0x20000078   0x00000080   Data   RW          355    .data               ahrs.o
    0x200000f8   0x00000004   Data   RW          487    .data               spi2.o
    0x200000fc   0x0000001c   Data   RW          540    .data               usart.o
    0x20000118   0x0000002c   Data   RW          564    .data               inv_mpu.o
    0x20000144   0x00000006   Data   RW          630    .data               sonar.o
    0x2000014a   0x00000002   PAD
    0x2000014c   0x00000014   Data   RW          653    .data               system_stm32f4xx.o
    0x20000160   0x00000010   Data   RW         1027    .data               stm32f4xx_rcc.o
    0x20000170   0x00000004   Data   RW         1179    .data               clock.o
    0x20000174   0x00000004   Data   RW         1209    .data               idle.o
    0x20000178   0x00000001   Data   RW         1244    .data               irq.o
    0x20000179   0x00000003   PAD
    0x2000017c   0x00000008   Data   RW         1261    .data               kservice.o
    0x20000184   0x00000020   Data   RW         1279    .data               mem.o
    0x200001a4   0x00000008   Data   RW         1296    .data               mempool.o
    0x200001ac   0x000000a4   Data   RW         1314    .data               object.o
    0x20000250   0x0000001c   Data   RW         1334    .data               scheduler.o
    0x2000026c   0x00000010   Data   RW         1371    .data               timer.o
    0x2000027c   0x00000010   Data   RW         1390    .data               cpuport.o
    0x2000028c   0x00000008   Data   RW         1528    .data               dfs_elm.o
    0x20000294   0x0000000a   Data   RW         1560    .data               ff.o
    0x2000029e   0x00000002   PAD
    0x200002a0   0x00000004   Data   RW         1683    .data               shell.o
    0x200002a4   0x00000010   Data   RW         1699    .data               symbol.o
    0x200002b4   0x00000004   Data   RW         1715    .data               cmd.o
    0x200002b8   0x00000008   Data   RW         1736    .data               finsh_compiler.o
    0x200002c0   0x00000040   Data   RW         1774    .data               finsh_error.o
    0x20000300   0x00000008   Data   RW         1790    .data               finsh_heap.o
    0x20000308   0x00000004   Data   RW         1872    .data               finsh_var.o
    0x2000030c   0x0000000c   Data   RW         1895    .data               finsh_vm.o
    0x20000318   0x00000e68   Zero   RW            3    .bss                application.o
    0x20001180   0x00000010   Zero   RW          330    .bss                pwm.o
    0x20001190   0x00000c70   Zero   RW          353    .bss                ahrs.o
    0x20001e00   0x000000b0   Zero   RW          450    .bss                settings.o
    0x20001eb0   0x000000b8   Zero   RW          485    .bss                spi2.o
    0x20001f68   0x000001a4   Zero   RW          539    .bss                usart.o
    0x2000210c   0x00000010   Zero   RW          596    .bss                inv_mpu_dmp_motion_driver.o
    0x2000211c   0x00000004   PAD
    0x20002120   0x00000480   Zero   RW         1207    .bss                idle.o
    0x200025a0   0x00000080   Zero   RW         1259    .bss                kservice.o
    0x20002620   0x00000020   Zero   RW         1276    .bss                mem.o
    0x20002640   0x00000100   Zero   RW         1332    .bss                scheduler.o
    0x20002740   0x000000d4   Zero   RW         1443    .bss                dfs.o
    0x20002814   0x00000124   Zero   RW         1490    .bss                dfs_file.o
    0x20002938   0x00000024   Zero   RW         1604    .bss                i2c_core.o
    0x2000295c   0x00000074   Zero   RW         1660    .bss                spi_flash_w25qxx.o
    0x200029d0   0x00000880   Zero   RW         1681    .bss                shell.o
    0x20003250   0x00000080   Zero   RW         1789    .bss                finsh_heap.o
    0x200032d0   0x00000140   Zero   RW         1823    .bss                finsh_node.o
    0x20003410   0x000000c0   Zero   RW         1871    .bss                finsh_var.o
    0x200034d0   0x00000180   Zero   RW         1894    .bss                finsh_vm.o
    0x20003650   0x00000060   Zero   RW         2192    .bss                c_w.l(libspace.o)
    0x200036b0   0x00000200   Zero   RW         1172    HEAP                startup_stm32f4xx.o
    0x200038b0   0x00000400   Zero   RW         1171    STACK               startup_stm32f4xx.o


==============================================================================

Image component sizes


      Code (inc. data)   RO Data    RW Data    ZI Data      Debug   Object Name

      6312        272         71        128       3184       6939   ahrs.o
      6260        896         34         65       3688     313165   application.o
       176         16          0          0          0      19279   board.o
       100          6          0          4          0       1596   clock.o
      3012       1244       1085          4          0      10479   cmd.o
        64         12         12          0          0       1766   components.o
       272         24          0          0          0        848   context_rvds.o
       448        220         19         16          0       3795   cpuport.o
      1008        166        168          0          0       5089   device.o
      1020        160         39          0        212       9183   dfs.o
      2912        262        261          8          0      17530   dfs_elm.o
      2504        358        143          0        292       8831   dfs_file.o
      1604        292        116          0          0       5860   dfs_fs.o
      1376         48         37          0          0       7271   dfs_posix.o
       848        102        110          0          0       5527   dfs_romfs.o
      9480        142         44         10          0      24797   ff.o
      6168        154          0          8          0      10842   finsh_compiler.o
        44         10        243         64          0       1753   finsh_error.o
       528         18          0          8        128       3439   finsh_heap.o
        88          6          0          0          0       1700   finsh_init.o
       388          4          0          0        320       3444   finsh_node.o
      2780         36        196          0          0       8940   finsh_ops.o
      2428         32          0          0          0       9609   finsh_parser.o
      1624         16        126          0          0       6008   finsh_token.o
       412         18          0          4        192       7293   finsh_var.o
       228         34          0         12        384       6982   finsh_vm.o
       124          8          0          0          0        716   hardtimer.o
       632        214         23          0         36       3256   i2c_core.o
       668        174        114          0          0       2904   i2c_dev.o
       360        104         22          4       1152       2951   idle.o
      7952        204        157         44          0      21405   inv_mpu.o
      3472        142       3062          0         16      15111   inv_mpu_dmp_motion_driver.o
      6904        466        471          0          0      21427   ipc.o
        72          6          0          1          0       1458   irq.o
      2512        168        290          8        128      11056   kservice.o
       156          4          0          0          0       1083   led.o
      2484        592        358         32         32       6039   mem.o
      1092        116         62          8          0       5378   mempool.o
       492         74          0          0          0       2025   misc.o
       780         44          0         12          0       2448   motor.o
       864        180         94        164          0       5964   object.o
      1296        112          0          0          0       2677   pid.o
      2476        120          0         36         16       4389   pwm.o
       820        180         78         28        256       4917   scheduler.o
      1596        298        133          0          0       5417   serial.o
      6316       1712        436          0        176      10359   settings.o
      2580        306        100          4       2176       5419   shell.o
         0          0         31          6          0        885   sonar.o
       472         58          8          4        184       2521   spi2.o
      1900        144        163          0          0       6106   spi_core.o
       920        204        217          0          0       4431   spi_dev.o
      1572        474         39          0        116       7972   spi_flash_w25qxx.o
       204         98          0          0          0       1327   startup.o
        64         26        392          0       1536        900   startup_stm32f4xx.o
       940          6          0          0          0       4362   stm32_iic.o
      5068        352          0          0          0       8649   stm32f4xx_dma.o
      2326        132          0          0          0       5205   stm32f4xx_gpio.o
        64          8          0          0          0       1395   stm32f4xx_it.o
      3452        262          0         16          0      12895   stm32f4xx_rcc.o
      3016        118          0          0          0       8121   stm32f4xx_spi.o
     12948        670          0          0          0      29236   stm32f4xx_tim.o
      3764        164          0          0          0       9572   stm32f4xx_usart.o
         0          0          0         16          0       4181   symbol.o
       528         46          0         20          0       1959   system_stm32f4xx.o
      1716        246        170          0          0       7906   thread.o
      1296        138         92         16          0       7007   timer.o
       412         50          0         28        420       2710   usart.o

    ----------------------------------------------------------------------
    136396      12968       9266        792      14648     765704   Object Totals
         0          0         32          0          0          0   (incl. Generated)
         2          0         18         14          4          0   (incl. Padding)

    ----------------------------------------------------------------------

      Code (inc. data)   RO Data    RW Data    ZI Data      Debug   Library Member Name

        90          0          0          0          0          0   __dczerorl2.o
         8          0          0          0          0         68   __main.o
        52          8          0          0          0          0   __scatter.o
        28          0          0          0          0          0   __scatter_zi.o
        28          0          0          0          0         68   _chval.o
         0          0         12          0          0          0   _monlen.o
        22          0          0          0          0        100   _rserrno.o
       158          0          0          0          0         92   _strtoul.o
        16          0          0          0          0         68   aeabi_memset.o
        26          0          0          0          0         80   atoi.o
        12          0          0          0          0         72   exit.o
         6          0          0          0          0        152   heapauxi.o
         0          0          0          0          0          0   indicate_semi.o
        44         10        272          0          0         76   lc_ctype_c.o
         2          0          0          0          0          0   libinit.o
        24          0          0          0          0          0   libinit2.o
         2          0          0          0          0          0   libshutdown.o
         2          0          0          0          0          0   libshutdown2.o
         8          4          0          0         96         68   libspace.o
        72          0          0          0          0         76   llsdiv.o
       238          0          0          0          0        100   lludivv7m.o
        88          0          0          0          0         76   memcmp.o
       420         10          0          0          0        128   mktime.o
        16          4          0          0          0         76   rt_ctype_table.o
         8          4          0          0          0         68   rt_errno_addr_intlibspace.o
         8          4          0          0          0         68   rt_locale_intlibspace.o
        68          0          0          0          0         68   rt_memclr.o
        78          0          0          0          0         80   rt_memclr_w.o
       138          0          0          0          0         68   rt_memcpy_v6.o
       100          0          0          0          0         80   rt_memcpy_w.o
         0          0          0          0          0          0   rtentry.o
        12          0          0          0          0          0   rtentry2.o
         6          0          0          0          0          0   rtentry4.o
         2          0          0          0          0          0   rtexit.o
        10          0          0          0          0          0   rtexit2.o
       128          0          0          0          0         68   strcmpv7m.o
        62          0          0          0          0         76   strlen.o
       150          0          0          0          0         80   strncmp.o
        86          0          0          0          0         76   strncpy.o
        22          0          0          0          0         68   strrchr.o
       112          0          0          0          0         88   strtol.o
        12          4          0          0          0         68   sys_exit.o
        74          0          0          0          0         80   sys_stackheap_outer.o
         2          0          0          0          0         68   use_no_semi.o
        24          0          0          0          0        164   basic.o
        98          4          0          0          0        140   d2f.o
       826         16          0          0          0        492   daddsub_clz.o
        24          0          0          0          0        116   dcmpi.o
       688        140          0          0          0        256   ddiv.o
        94          4          0          0          0        140   dfix.o
        90          4          0          0          0        140   dfixu.o
        84          0          0          0          0        232   dflt_clz.o
       120          4          0          0          0        140   dleqf.o
       340         12          0          0          0        152   dmul.o
       156          4          0          0          0        140   dnaninf.o
        12          0          0          0          0        116   dretinf.o
       108          0          0          0          0        128   drleqf.o
       408         56          0          0          0        168   dsqrt_umaal.o
        86          4          0          0          0        132   f2d.o
       140          4          0          0          0        132   fnaninf.o
        10          0          0          0          0        116   fpinit.o
        10          0          0          0          0        116   fretinf.o
         0          0          0          0          0          0   usenofp.o
       880        110         80          0          0        200   asin.o
       292         42          0          0          0        180   asinf.o
       752        104        152          0          0        344   atan.o
       496         70          0          0          0        156   atan2.o
       588         90          0          0          0        176   atan2f.o
       216         16          0          0          0        152   cos.o
       368         46         48          0          0        200   cos_i.o
        32          8          0          0          0        124   dunder.o
        24          0          0          0          0        124   fabs.o
        48          0          0          0          0        124   fpclassify.o
        38          0          0          0          0        116   fpclassifyf.o
        16          6          0          0          0        116   funder.o
       248          0          0          0          0        152   poly.o
         0          0          8          0          0          0   qnan.o
      1080        142        200          0          0        188   rred.o
       216         16          0          0          0        152   sin.o
       304         24         40          0          0        208   sin_i.o
       232          0          0          0          0        296   sqrt.o
        62          0          0          0          0        136   sqrtf.o

    ----------------------------------------------------------------------
     11682        982        816          0         96       8568   Library Totals
        32          8          4          0          0          0   (incl. Padding)

    ----------------------------------------------------------------------

      Code (inc. data)   RO Data    RW Data    ZI Data      Debug   Library Name

      2440         48        284          0         96       2404   c_w.l
      3318        252          0          0          0       3020   fz_wm.l
      5892        674        528          0          0       3144   m_wm.l

    ----------------------------------------------------------------------
     11682        982        816          0         96       8568   Library Totals

    ----------------------------------------------------------------------

==============================================================================


      Code (inc. data)   RO Data    RW Data    ZI Data      Debug   

    148078      13950      10082        792      14744     757620   Grand Totals
    148078      13950      10082        216      14744     757620   ELF Image Totals (compressed)
    148078      13950      10082        216          0          0   ROM Totals

==============================================================================

    Total RO  Size (Code + RO Data)               158160 ( 154.45kB)
    Total RW  Size (RW Data + ZI Data)             15536 (  15.17kB)
    Total ROM Size (Code + RO Data + RW Data)     158376 ( 154.66kB)

==============================================================================

